
gmm_test_hexagon:     file format elf32-littlehexagon


Disassembly of section .start:

00000000 <_start>:
       0:	4c c0 00 58 	5800c04c     jump 98 <hexagon_start_init>
       4:	3e c0 00 58 	5800c03e     jump 80 <zebu_mutex+0x40>
       8:	42 c0 00 58 	5800c042     jump 8c <zebu_mutex+0x4c>
	...

00000020 <R0_mailbox>:
      20:	00 00 00 00 	00000000     r0 = memw (r0 + #0) ; r0 = memw (r0 + #0)

00000024 <R1_mailbox>:
      24:	00 00 00 00 	00000000     r0 = memw (r0 + #0) ; r0 = memw (r0 + #0)

00000028 <flags_mailbox>:
      28:	00 00 00 00 	00000000     r0 = memw (r0 + #0) ; r0 = memw (r0 + #0)

0000002c <poll_mailbox>:
      2c:	00 00 00 00 	00000000     r0 = memw (r0 + #0) ; r0 = memw (r0 + #0)

00000030 <isdb_secure_flag>:
      30:	00 00 00 00 	00000000     r0 = memw (r0 + #0) ; r0 = memw (r0 + #0)

00000034 <isdb_trusted_flag>:
      34:	00 00 00 00 	00000000     r0 = memw (r0 + #0) ; r0 = memw (r0 + #0)

00000038 <isdb_debug_flag>:
      38:	00 00 00 00 	00000000     r0 = memw (r0 + #0) ; r0 = memw (r0 + #0)

0000003c <ISDBToAngel>:
      3c:	00 00 00 00 	00000000     r0 = memw (r0 + #0) ; r0 = memw (r0 + #0)

00000040 <zebu_mutex>:
	...
      80:	00 c0 3c 72 	723cc000     r28.h = #0
      84:	38 db 3c 71 	713cdb38     r28.l = #6968
      88:	00 c0 9c 52 	529cc000     jumpr r28
      8c:	00 c0 3c 72 	723cc000     r28.h = #0
      90:	b4 dc 3c 71 	713cdcb4     r28.l = #7348
      94:	00 c0 9c 52 	529cc000     jumpr r28

00000098 <hexagon_start_init>:
      98:	00 c0 9d 6e 	6e9dc000     r0 = rev
      9c:	e0 df 00 76 	7600dfe0     r0 = and (r0, #255)
      a0:	40 c0 00 75 	7500c040     p0 = cmp.eq (r0, #2)
      a4:	08 c0 20 5c 	5c20c008     if !p0 jump b4 <.InitChickenCustom>
      a8:	40 c0 20 72 	7220c040     r0.h = #64
      ac:	00 c0 20 71 	7120c000     r0.l = #0
      b0:	3c c0 00 67 	6700c03c     s60 = r0

000000b4 <.InitChickenCustom>:
      b4:	00 c0 20 72 	7220c000     r0.h = #0
      b8:	00 c0 20 71 	7120c000     r0.l = #0
      bc:	00 c0 00 75 	7500c000     p0 = cmp.eq (r0, #0)
      c0:	04 c0 00 5c 	5c00c004     if (p0) jump c8 <.InitCheckS61>
      c4:	3c c0 00 67 	6700c03c     s60 = r0

000000c8 <.InitCheckS61>:
      c8:	00 c0 20 72 	7220c000     r0.h = #0
      cc:	00 c0 20 71 	7120c000     r0.l = #0
      d0:	00 c0 00 75 	7500c000     p0 = cmp.eq (r0, #0)
      d4:	04 c0 00 5c 	5c00c004     if (p0) jump dc <.InitCheckS62>
      d8:	3d c0 00 67 	6700c03d     acc0 = r0

000000dc <.InitCheckS62>:
      dc:	00 c0 20 72 	7220c000     r0.h = #0
      e0:	00 c0 20 71 	7120c000     r0.l = #0
      e4:	00 c0 00 75 	7500c000     p0 = cmp.eq (r0, #0)
      e8:	04 c0 00 5c 	5c00c004     if (p0) jump f0 <.InitCheckS63>
      ec:	3e c0 00 67 	6700c03e     acc1 = r0

000000f0 <.InitCheckS63>:
      f0:	00 c0 20 72 	7220c000     r0.h = #0
      f4:	00 c0 20 71 	7120c000     r0.l = #0
      f8:	00 c0 00 75 	7500c000     p0 = cmp.eq (r0, #0)
      fc:	04 c0 00 5c 	5c00c004     if (p0) jump 104 <.Init>
     100:	3f c0 00 67 	6700c03f     chicken = r0

00000104 <.Init>:
     104:	00 c0 00 a2 	a200c000     dckill
     108:	02 c0 c0 57 	57c0c002     isync
     10c:	00 d0 c0 56 	56c0d000     ickill
     110:	02 c0 c0 57 	57c0c002     isync

00000114 <.InitPre>:
     114:	00 c0 20 72 	7220c000     r0.h = #0
     118:	00 c0 20 71 	7120c000     r0.l = #0
     11c:	00 c0 00 75 	7500c000     p0 = cmp.eq (r0, #0)
     120:	00 c0 20 51 	5120c000     if !p0 callr r0

00000124 <.InitSSR>:
     124:	00 c0 00 78 	7800c000     r0 = #0
     128:	06 c0 00 67 	6700c006     ssr = r0
     12c:	02 c0 c0 57 	57c0c002     isync

00000130 <.InitISDB>:
     130:	00 c0 20 72 	7220c000     r0.h = #0
     134:	00 c0 20 71 	7120c000     r0.l = #0
     138:	00 c0 00 75 	7500c000     p0 = cmp.eq (r0, #0)
     13c:	e0 df 80 74 	7480dfe0     if !p0 r0 = add (r0, #-1)
     140:	00 c0 21 72 	7221c000     r1.h = #0
     144:	30 c0 21 71 	7121c030     r1.l = #48
     148:	00 c0 81 44 	4481c000     if !p0 memw (r1 + #0) = r0
     14c:	00 c0 81 45 	4581c000     if !p0 r0 = memw (r1 + #0)
     150:	00 c0 20 72 	7220c000     r0.h = #0
     154:	00 c0 20 71 	7120c000     r0.l = #0
     158:	00 c0 00 75 	7500c000     p0 = cmp.eq (r0, #0)
     15c:	e0 df 80 74 	7480dfe0     if !p0 r0 = add (r0, #-1)
     160:	00 c0 21 72 	7221c000     r1.h = #0
     164:	34 c0 21 71 	7121c034     r1.l = #52
     168:	00 c0 81 44 	4481c000     if !p0 memw (r1 + #0) = r0
     16c:	00 c0 81 45 	4581c000     if !p0 r0 = memw (r1 + #0)
     170:	00 c0 20 72 	7220c000     r0.h = #0
     174:	30 c0 20 71 	7120c030     r0.l = #48
     178:	00 c0 80 91 	9180c000     r0 = memw (r0 + #0)
     17c:	00 c0 00 75 	7500c000     p0 = cmp.eq (r0, #0)
     180:	00 c0 20 72 	7220c000     r0.h = #0
     184:	34 c0 20 71 	7120c034     r0.l = #52
     188:	00 c0 80 91 	9180c000     r0 = memw (r0 + #0)
     18c:	01 c0 00 75 	7500c001     p1 = cmp.eq (r0, #0)
     190:	02 c0 21 6b 	6b21c002     p2 = or (p0, p1)
     194:	00 c0 92 6e 	6e92c000     r0 = syscfg
     198:	03 c0 14 7b 	7b14c003     r3 = mux (p2, #0, #40)
     19c:	00 c3 20 f1 	f120c300     r0 = or (r0, r3)
     1a0:	12 c0 00 67 	6700c012     syscfg = r0
     1a4:	02 c0 c0 57 	57c0c002     isync
     1a8:	00 c0 20 72 	7220c000     r0.h = #0
     1ac:	00 c0 20 71 	7120c000     r0.l = #0
     1b0:	03 c0 00 75 	7500c003     p3 = cmp.eq (r0, #0)
     1b4:	e0 df e0 74 	74e0dfe0     if !p3 r0 = add (r0, #-1)
     1b8:	01 c0 21 72 	7221c001     r1.h = #1
     1bc:	38 d4 21 71 	7121d438     r1.l = #5176
     1c0:	03 c0 81 44 	4481c003     if !p3 memw (r1 + #0) = r0
     1c4:	00 d8 81 45 	4581d800     if !p3 r0 = memw (r1 + #0)
     1c8:	01 c0 20 72 	7220c001     r0.h = #1
     1cc:	38 d4 20 71 	7120d438     r0.l = #5176
     1d0:	00 c0 80 91 	9180c000     r0 = memw (r0 + #0)
     1d4:	03 c0 00 75 	7500c003     p3 = cmp.eq (r0, #0)
     1d8:	00 c2 23 6b 	6b23c200     p0 = or (p2, p3)
     1dc:	00 e0 00 7a 	7a00e000     r0 = mux (p0, #0, #1)
     1e0:	00 c0 21 72 	7221c000     r1.h = #0
     1e4:	3c c0 21 71 	7121c03c     r1.l = #60
     1e8:	00 c0 81 a1 	a181c000     memw (r1 + #0) = r0
     1ec:	00 c0 81 91 	9181c000     r0 = memw (r1 + #0)

000001f0 <.InitISDBEnable>:
     1f0:	00 c0 20 72 	7220c000     r0.h = #0
     1f4:	00 c0 20 71 	7120c000     r0.l = #0
     1f8:	00 c0 00 75 	7500c000     p0 = cmp.eq (r0, #0)
     1fc:	e0 df 80 74 	7480dfe0     if !p0 r0 = add (r0, #-1)
     200:	00 c0 21 72 	7221c000     r1.h = #0
     204:	38 c0 21 71 	7121c038     r1.l = #56
     208:	00 c0 81 44 	4481c000     if !p0 memw (r1 + #0) = r0
     20c:	00 c0 81 45 	4581c000     if !p0 r0 = memw (r1 + #0)
     210:	00 c0 20 72 	7220c000     r0.h = #0
     214:	38 c0 20 71 	7120c038     r0.l = #56
     218:	00 c0 80 91 	9180c000     r0 = memw (r0 + #0)
     21c:	00 c0 00 75 	7500c000     p0 = cmp.eq (r0, #0)
     220:	00 c0 c0 6b 	6bc0c000     p0 = not (p0)
     224:	00 c0 40 89 	8940c000     r0 = p0
     228:	2a c0 00 67 	6700c02a     isdben = r0
     22c:	00 c0 00 7f 	7f00c000     nop
     230:	00 c0 20 6c 	6c20c000     brkpt

00000234 <.InitParams>:
     234:	00 c0 20 72 	7220c000     r0.h = #0
     238:	00 c0 20 71 	7120c000     r0.l = #0
     23c:	00 c0 00 75 	7500c000     p0 = cmp.eq (r0, #0)
     240:	e0 df 80 74 	7480dfe0     if !p0 r0 = add (r0, #-1)
     244:	00 c0 21 72 	7221c000     r1.h = #0
     248:	44 cf 21 71 	7121cf44     r1.l = #3908
     24c:	00 c0 81 44 	4481c000     if !p0 memw (r1 + #0) = r0
     250:	00 c0 81 45 	4581c000     if !p0 r0 = memw (r1 + #0)
     254:	00 c0 20 72 	7220c000     r0.h = #0
     258:	00 c0 20 71 	7120c000     r0.l = #0
     25c:	00 c0 00 75 	7500c000     p0 = cmp.eq (r0, #0)
     260:	e0 df 80 74 	7480dfe0     if !p0 r0 = add (r0, #-1)
     264:	00 c0 21 72 	7221c000     r1.h = #0
     268:	48 cf 21 71 	7121cf48     r1.l = #3912
     26c:	00 c0 81 44 	4481c000     if !p0 memw (r1 + #0) = r0
     270:	00 c0 81 45 	4581c000     if !p0 r0 = memw (r1 + #0)
     274:	00 c0 20 72 	7220c000     r0.h = #0
     278:	00 c0 20 71 	7120c000     r0.l = #0
     27c:	00 c0 00 75 	7500c000     p0 = cmp.eq (r0, #0)
     280:	e0 df 80 74 	7480dfe0     if !p0 r0 = add (r0, #-1)
     284:	00 c0 21 72 	7221c000     r1.h = #0
     288:	4c cf 21 71 	7121cf4c     r1.l = #3916
     28c:	00 c0 81 44 	4481c000     if !p0 memw (r1 + #0) = r0
     290:	00 c0 81 45 	4581c000     if !p0 r0 = memw (r1 + #0)
     294:	00 c0 20 72 	7220c000     r0.h = #0
     298:	00 c0 20 71 	7120c000     r0.l = #0
     29c:	00 c0 00 75 	7500c000     p0 = cmp.eq (r0, #0)
     2a0:	e0 df 80 74 	7480dfe0     if !p0 r0 = add (r0, #-1)
     2a4:	00 c0 21 72 	7221c000     r1.h = #0
     2a8:	50 cf 21 71 	7121cf50     r1.l = #3920
     2ac:	00 c0 81 44 	4481c000     if !p0 memw (r1 + #0) = r0
     2b0:	00 c0 81 45 	4581c000     if !p0 r0 = memw (r1 + #0)
     2b4:	00 c0 20 72 	7220c000     r0.h = #0
     2b8:	00 c0 20 71 	7120c000     r0.l = #0
     2bc:	00 c0 00 75 	7500c000     p0 = cmp.eq (r0, #0)
     2c0:	e0 df 80 74 	7480dfe0     if !p0 r0 = add (r0, #-1)
     2c4:	00 c0 21 72 	7221c000     r1.h = #0
     2c8:	60 cf 21 71 	7121cf60     r1.l = #3936
     2cc:	00 c0 81 44 	4481c000     if !p0 memw (r1 + #0) = r0
     2d0:	00 c0 81 45 	4581c000     if !p0 r0 = memw (r1 + #0)
     2d4:	00 c0 20 72 	7220c000     r0.h = #0
     2d8:	00 c0 20 71 	7120c000     r0.l = #0
     2dc:	00 c0 00 75 	7500c000     p0 = cmp.eq (r0, #0)
     2e0:	e0 df 80 74 	7480dfe0     if !p0 r0 = add (r0, #-1)
     2e4:	00 c0 21 72 	7221c000     r1.h = #0
     2e8:	64 cf 21 71 	7121cf64     r1.l = #3940
     2ec:	00 c0 81 44 	4481c000     if !p0 memw (r1 + #0) = r0
     2f0:	00 c0 81 45 	4581c000     if !p0 r0 = memw (r1 + #0)
     2f4:	00 c0 20 72 	7220c000     r0.h = #0
     2f8:	00 c0 20 71 	7120c000     r0.l = #0
     2fc:	00 c0 00 75 	7500c000     p0 = cmp.eq (r0, #0)
     300:	e0 df 80 74 	7480dfe0     if !p0 r0 = add (r0, #-1)
     304:	00 c0 21 72 	7221c000     r1.h = #0
     308:	68 cf 21 71 	7121cf68     r1.l = #3944
     30c:	00 c0 81 44 	4481c000     if !p0 memw (r1 + #0) = r0
     310:	00 c0 81 45 	4581c000     if !p0 r0 = memw (r1 + #0)
     314:	00 c0 20 72 	7220c000     r0.h = #0
     318:	00 c0 20 71 	7120c000     r0.l = #0
     31c:	00 c0 00 75 	7500c000     p0 = cmp.eq (r0, #0)
     320:	00 c0 21 72 	7221c000     r1.h = #0
     324:	5c cf 21 71 	7121cf5c     r1.l = #3932
     328:	00 c0 81 44 	4481c000     if !p0 memw (r1 + #0) = r0
     32c:	00 c0 81 45 	4581c000     if !p0 r0 = memw (r1 + #0)
     330:	00 c0 20 72 	7220c000     r0.h = #0
     334:	00 c0 20 71 	7120c000     r0.l = #0
     338:	00 c0 00 75 	7500c000     p0 = cmp.eq (r0, #0)
     33c:	00 c0 21 72 	7221c000     r1.h = #0
     340:	58 cf 21 71 	7121cf58     r1.l = #3928
     344:	00 c0 81 44 	4481c000     if !p0 memw (r1 + #0) = r0
     348:	00 c0 81 45 	4581c000     if !p0 r0 = memw (r1 + #0)
     34c:	00 c0 20 72 	7220c000     r0.h = #0
     350:	00 c0 20 71 	7120c000     r0.l = #0
     354:	00 c0 00 75 	7500c000     p0 = cmp.eq (r0, #0)
     358:	e0 df 80 74 	7480dfe0     if !p0 r0 = add (r0, #-1)
     35c:	00 c0 21 72 	7221c000     r1.h = #0
     360:	6c cf 21 71 	7121cf6c     r1.l = #3948
     364:	00 c0 81 44 	4481c000     if !p0 memw (r1 + #0) = r0
     368:	00 c0 81 45 	4581c000     if !p0 r0 = memw (r1 + #0)
     36c:	00 c0 20 72 	7220c000     r0.h = #0
     370:	00 c0 20 71 	7120c000     r0.l = #0
     374:	00 c0 00 75 	7500c000     p0 = cmp.eq (r0, #0)
     378:	e0 df 80 74 	7480dfe0     if !p0 r0 = add (r0, #-1)
     37c:	00 c0 21 72 	7221c000     r1.h = #0
     380:	70 cf 21 71 	7121cf70     r1.l = #3952
     384:	00 c0 81 44 	4481c000     if !p0 memw (r1 + #0) = r0
     388:	00 c0 81 45 	4581c000     if !p0 r0 = memw (r1 + #0)
     38c:	00 c0 20 72 	7220c000     r0.h = #0
     390:	00 c0 20 71 	7120c000     r0.l = #0
     394:	00 c0 00 75 	7500c000     p0 = cmp.eq (r0, #0)
     398:	e0 df 80 74 	7480dfe0     if !p0 r0 = add (r0, #-1)
     39c:	00 c0 21 72 	7221c000     r1.h = #0
     3a0:	74 cf 21 71 	7121cf74     r1.l = #3956
     3a4:	00 c0 81 44 	4481c000     if !p0 memw (r1 + #0) = r0
     3a8:	00 c0 81 45 	4581c000     if !p0 r0 = memw (r1 + #0)
     3ac:	00 c0 20 72 	7220c000     r0.h = #0
     3b0:	00 c0 20 71 	7120c000     r0.l = #0
     3b4:	00 c0 00 75 	7500c000     p0 = cmp.eq (r0, #0)
     3b8:	e0 df 80 74 	7480dfe0     if !p0 r0 = add (r0, #-1)
     3bc:	00 c0 21 72 	7221c000     r1.h = #0
     3c0:	40 cf 21 71 	7121cf40     r1.l = #3904
     3c4:	00 c0 81 44 	4481c000     if !p0 memw (r1 + #0) = r0
     3c8:	00 c0 81 45 	4581c000     if !p0 r0 = memw (r1 + #0)
     3cc:	00 c0 20 72 	7220c000     r0.h = #0
     3d0:	00 c0 20 71 	7120c000     r0.l = #0
     3d4:	00 c0 00 75 	7500c000     p0 = cmp.eq (r0, #0)
     3d8:	e0 df 80 74 	7480dfe0     if !p0 r0 = add (r0, #-1)
     3dc:	00 c0 21 72 	7221c000     r1.h = #0
     3e0:	54 cf 21 71 	7121cf54     r1.l = #3924
     3e4:	00 c0 81 44 	4481c000     if !p0 memw (r1 + #0) = r0
     3e8:	00 c0 81 45 	4581c000     if !p0 r0 = memw (r1 + #0)
     3ec:	00 c0 20 72 	7220c000     r0.h = #0
     3f0:	00 c0 20 71 	7120c000     r0.l = #0
     3f4:	00 c0 00 75 	7500c000     p0 = cmp.eq (r0, #0)
     3f8:	00 c0 21 72 	7221c000     r1.h = #0
     3fc:	78 cf 21 71 	7121cf78     r1.l = #3960
     400:	00 c0 81 44 	4481c000     if !p0 memw (r1 + #0) = r0
     404:	00 c0 81 45 	4581c000     if !p0 r0 = memw (r1 + #0)

00000408 <.InitVector>:
     408:	00 c0 20 72 	7220c000     r0.h = #0
     40c:	58 cf 20 71 	7120cf58     r0.l = #3928
     410:	00 c0 80 91 	9180c000     r0 = memw (r0 + #0)
     414:	10 c0 00 67 	6700c010     evb = r0

00000418 <.InitStack>:
     418:	00 c0 20 72 	7220c000     r0.h = #0
     41c:	4c da 20 71 	7120da4c     r0.l = #6732
     420:	00 c0 80 91 	9180c000     r0 = memw (r0 + #0)
     424:	00 c0 00 67 	6700c000     sgp0 = r0
     428:	1d c0 60 70 	7060c01d     r29 = r0

0000042c <.InitPcycle>:
     42c:	00 c0 20 72 	7220c000     r0.h = #0
     430:	6c cf 20 71 	7120cf6c     r0.l = #3948
     434:	00 c0 80 91 	9180c000     r0 = memw (r0 + #0)
     438:	00 c0 00 75 	7500c000     p0 = cmp.eq (r0, #0)
     43c:	00 c0 c0 6b 	6bc0c000     p0 = not (p0)
     440:	01 c0 40 89 	8940c001     r1 = p0
     444:	00 c0 92 6e 	6e92c000     r0 = syscfg
     448:	c0 c1 01 8f 	8f01c1c0     r0 = insert (r1, #1, #6)
     44c:	12 c0 00 67 	6700c012     syscfg = r0

00000450 <.InitDMT>:
     450:	00 c0 20 72 	7220c000     r0.h = #0
     454:	70 cf 20 71 	7120cf70     r0.l = #3952
     458:	00 c0 80 91 	9180c000     r0 = memw (r0 + #0)
     45c:	00 c0 00 75 	7500c000     p0 = cmp.eq (r0, #0)
     460:	00 c0 c0 6b 	6bc0c000     p0 = not (p0)
     464:	01 c0 40 89 	8940c001     r1 = p0
     468:	00 c0 92 6e 	6e92c000     r0 = syscfg
     46c:	e0 c1 21 8f 	8f21c1e0     r0 = insert (r1, #1, #15)
     470:	12 c0 00 67 	6700c012     syscfg = r0

00000474 <.InitQoS>:
     474:	00 c0 20 72 	7220c000     r0.h = #0
     478:	74 cf 20 71 	7120cf74     r0.l = #3956
     47c:	00 c0 80 91 	9180c000     r0 = memw (r0 + #0)
     480:	00 c0 00 75 	7500c000     p0 = cmp.eq (r0, #0)
     484:	00 c0 c0 6b 	6bc0c000     p0 = not (p0)
     488:	01 c0 40 89 	8940c001     r1 = p0
     48c:	00 c0 92 6e 	6e92c000     r0 = syscfg
     490:	a0 c1 21 8f 	8f21c1a0     r0 = insert (r1, #1, #13)
     494:	12 c0 00 67 	6700c012     syscfg = r0
     498:	00 c0 9d 6e 	6e9dc000     r0 = rev
     49c:	e0 df 00 76 	7600dfe0     r0 = and (r0, #255)
     4a0:	40 c0 80 75 	7580c040     p0 = cmp.gtu (r0, #2)
     4a4:	0a c0 00 5c 	5c00c00a     if (p0) jump 4b8 <.InitQoS+0x44>
     4a8:	00 c0 92 6e 	6e92c000     r0 = syscfg
     4ac:	81 c2 40 8d 	8d40c281     r1 = extractu (r0, #2, #20)
     4b0:	00 c0 01 75 	7501c000     p0 = cmp.eq (r1, #0)
     4b4:	3e c0 00 5c 	5c00c03e     if (p0) jump 530 <.InitCache>
     4b8:	00 c0 87 6e 	6e87c000     r0 = ccr
     4bc:	03 c0 00 78 	7800c003     r3 = #0
     4c0:	00 c4 43 8f 	8f43c400     r0 = insert (r3, #4, #16)
     4c4:	07 c0 00 67 	6700c007     ccr = r0
     4c8:	00 c0 92 6e 	6e92c000     r0 = syscfg
     4cc:	00 c3 43 8f 	8f43c300     r0 = insert (r3, #3, #16)
     4d0:	00 c0 00 7f 	7f00c000     nop
     4d4:	00 c0 00 7f 	7f00c000     nop
     4d8:	00 c0 00 7f 	7f00c000     nop
     4dc:	00 c0 00 7f 	7f00c000     nop
     4e0:	02 c0 c0 57 	57c0c002     isync
     4e4:	01 c0 9d 6e 	6e9dc001     r1 = rev
     4e8:	e1 df 01 76 	7601dfe1     r1 = and (r1, #255)
     4ec:	40 c0 01 75 	7501c040     p0 = cmp.eq (r1, #2)
     4f0:	04 c0 00 5c 	5c00c004     if (p0) jump 4f8 <.SkipSyncHT>
     4f4:	00 c0 40 a8 	a840c000     syncht

000004f8 <.SkipSyncHT>:
     4f8:	12 c0 00 67 	6700c012     syscfg = r0
     4fc:	02 c0 c0 57 	57c0c002     isync
     500:	00 c0 20 a8 	a820c000     l2kill
     504:	02 c0 9d 6e 	6e9dc002     r2 = rev
     508:	82 c4 22 8d 	8d22c482     r2 = extractu (r2, #4, #12)
     50c:	6b 40 00 00 	0000406b     { immext (#6848)
     510:	82 c0 02 91 	9102c082       r2 = memb (r2 + ##6852) }
     514:	00 c0 23 72 	7223c000     r3.h = #0
     518:	40 cf 23 71 	7123cf40     r3.l = #3904
     51c:	03 c0 83 91 	9183c003     r3 = memw (r3 + #0)
     520:	03 c2 a3 d5 	d5a3c203     r3 = min (r2, r3)
     524:	00 c3 43 8f 	8f43c300     r0 = insert (r3, #3, #16)
     528:	12 c0 00 67 	6700c012     syscfg = r0
     52c:	02 c0 c0 57 	57c0c002     isync

00000530 <.InitCache>:
     530:	00 c0 21 72 	7221c000     r1.h = #0
     534:	44 cf 21 71 	7121cf44     r1.l = #3908
     538:	01 c0 81 91 	9181c001     r1 = memw (r1 + #0)
     53c:	00 c0 20 72 	7220c000     r0.h = #0
     540:	4c cf 20 71 	7120cf4c     r0.l = #3916
     544:	00 c0 80 91 	9180c000     r0 = memw (r0 + #0)
     548:	02 c0 92 6e 	6e92c002     r2 = syscfg
     54c:	22 c1 01 8f 	8f01c122     r2 = insert (r1, #1, #1)
     550:	42 c1 00 8f 	8f00c142     r2 = insert (r0, #1, #2)
     554:	00 c0 9d 6e 	6e9dc000     r0 = rev
     558:	e0 df 00 76 	7600dfe0     r0 = and (r0, #255)
     55c:	40 c0 00 75 	7500c040     p0 = cmp.eq (r0, #2)
     560:	14 c0 00 5c 	5c00c014     if (p0) jump 588 <.SkipParityAndWB>
     564:	00 c0 20 72 	7220c000     r0.h = #0
     568:	00 c0 20 71 	7120c000     r0.l = #0
     56c:	00 c0 00 75 	7500c000     p0 = cmp.eq (r0, #0)
     570:	04 c0 00 5c 	5c00c004     if (p0) jump 578 <.CheckWB>
     574:	02 d8 c2 8c 	8cc2d802     r2 = setbit (r2, #24)

00000578 <.CheckWB>:
     578:	00 c0 21 72 	7221c000     r1.h = #0
     57c:	54 cf 21 71 	7121cf54     r1.l = #3924
     580:	01 c0 81 91 	9181c001     r1 = memw (r1 + #0)
     584:	e2 c1 41 8f 	8f41c1e2     r2 = insert (r1, #1, #23)

00000588 <.SkipParityAndWB>:
     588:	12 c0 02 67 	6702c012     syscfg = r2
     58c:	02 c0 c0 57 	57c0c002     isync
     590:	02 c0 87 6e 	6e87c002     r2 = ccr
     594:	00 c0 20 72 	7220c000     r0.h = #0
     598:	48 cf 20 71 	7120cf48     r0.l = #3912
     59c:	00 c0 80 91 	9180c000     r0 = memw (r0 + #0)
     5a0:	00 c0 21 72 	7221c000     r1.h = #0
     5a4:	50 cf 21 71 	7121cf50     r1.l = #3920
     5a8:	01 c0 81 91 	9181c001     r1 = memw (r1 + #0)
     5ac:	c0 c1 41 8e 	8e41c1c0     r0 |= asl (r1, #1)
     5b0:	02 c2 40 8f 	8f40c202     r2 = insert (r0, #2, #16)
     5b4:	02 d4 c2 8c 	8cc2d402     r2 = setbit (r2, #20)
     5b8:	07 c0 02 67 	6702c007     ccr = r2
     5bc:	00 c0 00 76 	7600c000     r0 = and (r0, #0)
     5c0:	00 d0 c0 8c 	8cc0d000     r0 = setbit (r0, #16)
     5c4:	08 c0 20 62 	6220c008     usr = r0
     5c8:	02 c0 c0 57 	57c0c002     isync

000005cc <.InitTLB>:
     5cc:	00 c0 20 72 	7220c000     r0.h = #0
     5d0:	60 cf 20 71 	7120cf60     r0.l = #3936
     5d4:	00 c0 80 91 	9180c000     r0 = memw (r0 + #0)
     5d8:	00 c0 00 75 	7500c000     p0 = cmp.eq (r0, #0)
     5dc:	46 c0 00 5c 	5c00c046     if (p0) jump 668 <.InitInt>
     5e0:	00 c0 20 72 	7220c000     r0.h = #0
     5e4:	00 c0 20 71 	7120c000     r0.l = #0
     5e8:	20 c0 40 75 	7540c020     p0 = cmp.gt (r0, #1)
     5ec:	18 c0 00 5c 	5c00c018     if (p0) jump 61c <.InitTLBGlobal>
     5f0:	00 c0 20 72 	7220c000     r0.h = #0
     5f4:	68 cf 20 71 	7120cf68     r0.l = #3944
     5f8:	00 c0 80 91 	9180c000     r0 = memw (r0 + #0)
     5fc:	03 c0 00 75 	7500c003     p3 = cmp.eq (r0, #0)
     600:	e0 e3 9f 7b 	7b9fe3e0     r0 = mux (p3, #31, #63)
     604:	02 c0 00 7c 	7c00c002     r3:2 = combine (#0, #0)

00000608 <.InitTLBLoop>:
     608:	00 c0 02 6c 	6c02c000     tlbw (r3:2, r0)
     60c:	02 c0 c0 57 	57c0c002     isync
     610:	e0 ff e0 bf 	bfe0ffe0     r0 = add (r0, #-1)
     614:	00 c0 00 75 	7500c000     p0 = cmp.eq (r0, #0)
     618:	f8 e0 ff 5c 	5cffe0f8     if !p0 jump 608 <.InitTLBLoop>

0000061c <.InitTLBGlobal>:
     61c:	00 c0 22 72 	7222c000     r2.h = #0
     620:	00 c0 22 71 	7122c000     r2.l = #0
     624:	22 cc 02 8c 	8c02cc22     r2 = lsr (r2, #12)
     628:	f0 c3 e1 72 	72e1c3f0     r1.h = #50160
     62c:	00 c0 21 71 	7121c000     r1.l = #0
     630:	00 f7 e0 72 	72e0f700     r0.h = #63232
     634:	00 c0 20 71 	7120c000     r0.l = #0
     638:	01 c2 21 f1 	f121c201     r1 = or (r1, r2)
     63c:	c0 c1 42 8e 	8e42c1c0     r0 |= asl (r2, #1)
     640:	00 c4 c0 8c 	8cc0c400     r0 = setbit (r0, #4)
     644:	00 fe 20 76 	7620fe00     r0 = and (r0, #-16)
     648:	02 c0 00 78 	7800c002     r2 = #0
     64c:	00 c3 00 6c 	6c00c300     tlbw (r1:0, r3)
     650:	00 c0 92 6e 	6e92c000     r0 = syscfg
     654:	00 c0 c0 8c 	8cc0c000     r0 = setbit (r0, #0)
     658:	01 c0 43 89 	8943c001     r1 = p3
     65c:	e0 c1 01 8f 	8f01c1e0     r0 = insert (r1, #1, #7)
     660:	12 c0 00 67 	6700c012     syscfg = r0
     664:	02 c0 c0 57 	57c0c002     isync

00000668 <.InitInt>:
     668:	00 c0 00 78 	7800c000     r0 = #0
     66c:	0a c0 00 67 	6700c00a     imask = r0
     670:	e1 ff df 78 	78dfffe1     r1 = #-1
     674:	18 c0 01 67 	6701c018     iel = r1
     678:	1a c0 01 67 	6701c01a     iahl = r1
     67c:	20 c0 01 64 	6401c020     cswi (r1)
     680:	00 c0 86 6e 	6e86c000     r0 = ssr
     684:	00 d2 c0 8c 	8cc0d200     r0 = setbit (r0, #18)
     688:	06 c0 00 67 	6700c006     ssr = r0
     68c:	00 c0 92 6e 	6e92c000     r0 = syscfg
     690:	00 c4 c0 8c 	8cc0c400     r0 = setbit (r0, #4)
     694:	12 c0 00 67 	6700c012     syscfg = r0
     698:	02 c0 c0 57 	57c0c002     isync

0000069c <.OverrideCCR>:
     69c:	00 c0 20 72 	7220c000     r0.h = #0
     6a0:	00 c0 20 71 	7120c000     r0.l = #0
     6a4:	00 c0 00 75 	7500c000     p0 = cmp.eq (r0, #0)
     6a8:	06 c0 00 5c 	5c00c006     if (p0) jump 6b4 <.OverrideUSR>
     6ac:	07 c0 00 67 	6700c007     ccr = r0
     6b0:	02 c0 c0 57 	57c0c002     isync

000006b4 <.OverrideUSR>:
     6b4:	00 c0 20 72 	7220c000     r0.h = #0
     6b8:	00 c0 20 71 	7120c000     r0.l = #0
     6bc:	00 c0 00 75 	7500c000     p0 = cmp.eq (r0, #0)
     6c0:	06 c0 00 5c 	5c00c006     if (p0) jump 6cc <.OverrideSYSCFG>
     6c4:	08 c0 20 62 	6220c008     usr = r0
     6c8:	02 c0 c0 57 	57c0c002     isync

000006cc <.OverrideSYSCFG>:
     6cc:	00 c0 20 72 	7220c000     r0.h = #0
     6d0:	00 c0 20 71 	7120c000     r0.l = #0
     6d4:	00 c0 00 75 	7500c000     p0 = cmp.eq (r0, #0)
     6d8:	06 c0 00 5c 	5c00c006     if (p0) jump 6e4 <.FinishOverrides>
     6dc:	12 c0 00 67 	6700c012     syscfg = r0
     6e0:	02 c0 c0 57 	57c0c002     isync

000006e4 <.FinishOverrides>:
     6e4:	01 c0 20 72 	7220c001     r0.h = #1
     6e8:	38 d4 20 71 	7120d438     r0.l = #5176
     6ec:	00 c0 80 91 	9180c000     r0 = memw (r0 + #0)
     6f0:	00 c0 00 75 	7500c000     p0 = cmp.eq (r0, #0)
     6f4:	16 c0 00 5c 	5c00c016     if (p0) jump 720 <.PreMain>
     6f8:	01 c0 20 72 	7220c001     r0.h = #1
     6fc:	18 d0 20 71 	7120d018     r0.l = #4120
     700:	01 c4 00 78 	7800c401     r1 = #32
     704:	00 c0 3c 72 	723cc000     r28.h = #0
     708:	b0 e8 7c 71 	717ce8b0     r28.l = #26800
     70c:	00 c0 bc 50 	50bcc000     callr r28
     710:	c0 c2 00 78 	7800c2c0     r0 = #22
     714:	01 c0 21 72 	7221c001     r1.h = #1
     718:	28 d0 21 71 	7121d028     r1.l = #4136
     71c:	00 c0 00 54 	5400c000     trap0 (#0)

00000720 <.PreMain>:
     720:	00 c0 3c 72 	723cc000     r28.h = #0
     724:	38 db 3c 71 	713cdb38     r28.l = #6968
     728:	00 c0 9c 52 	529cc000     jumpr r28
     72c:	00 c0 00 7f 	7f00c000     nop

00000730 <__coredump>:
     730:	00 c0 20 72 	7220c000     r0.h = #0
     734:	78 cf 20 71 	7120cf78     r0.l = #3960
     738:	00 c0 80 91 	9180c000     r0 = memw (r0 + #0)
     73c:	08 c0 c0 ab 	abc0c008     memd (r0 ++ #8) = r1:0
     740:	08 c2 c0 ab 	abc0c208     memd (r0 ++ #8) = r3:2
     744:	08 c4 c0 ab 	abc0c408     memd (r0 ++ #8) = r5:4
     748:	00 c6 c0 a1 	a1c0c600     memd (r0 + #0) = r7:6
     74c:	00 c0 00 a0 	a000c000     dccleana (r0)
     750:	00 c1 00 b0 	b000c100     r0 = add (r0, #8)
     754:	08 c8 c0 ab 	abc0c808     memd (r0 ++ #8) = r9:8
     758:	08 ca c0 ab 	abc0ca08     memd (r0 ++ #8) = r11:10
     75c:	08 cc c0 ab 	abc0cc08     memd (r0 ++ #8) = r13:12
     760:	00 ce c0 a1 	a1c0ce00     memd (r0 + #0) = r15:14
     764:	00 c0 00 a0 	a000c000     dccleana (r0)
     768:	00 c1 00 b0 	b000c100     r0 = add (r0, #8)
     76c:	08 d0 c0 ab 	abc0d008     memd (r0 ++ #8) = r17:16
     770:	08 d2 c0 ab 	abc0d208     memd (r0 ++ #8) = r19:18
     774:	08 d4 c0 ab 	abc0d408     memd (r0 ++ #8) = r21:20
     778:	00 d6 c0 a1 	a1c0d600     memd (r0 + #0) = r23:22
     77c:	00 c0 00 a0 	a000c000     dccleana (r0)
     780:	00 c1 00 b0 	b000c100     r0 = add (r0, #8)
     784:	08 d8 c0 ab 	abc0d808     memd (r0 ++ #8) = r25:24
     788:	08 da c0 ab 	abc0da08     memd (r0 ++ #8) = r27:26
     78c:	08 dc c0 ab 	abc0dc08     memd (r0 ++ #8) = r29:28
     790:	00 de c0 a1 	a1c0de00     memd (r0 + #0) = r31:30
     794:	00 c0 00 a0 	a000c000     dccleana (r0)
     798:	00 c1 00 b0 	b000c100     r0 = add (r0, #8)
     79c:	01 c0 00 6a 	6a00c001     r1 = sa0
     7a0:	08 c1 80 ab 	ab80c108     memw (r0 ++ #4) = r1
     7a4:	01 c0 01 6a 	6a01c001     r1 = lc0
     7a8:	08 c1 80 ab 	ab80c108     memw (r0 ++ #4) = r1
     7ac:	01 c0 02 6a 	6a02c001     r1 = sa1
     7b0:	08 c1 80 ab 	ab80c108     memw (r0 ++ #4) = r1
     7b4:	01 c0 03 6a 	6a03c001     r1 = lc1
     7b8:	08 c1 80 ab 	ab80c108     memw (r0 ++ #4) = r1
     7bc:	01 c0 04 6a 	6a04c001     r1 = p3:0
     7c0:	08 c1 80 ab 	ab80c108     memw (r0 ++ #4) = r1
     7c4:	01 c0 06 6a 	6a06c001     r1 = m0
     7c8:	08 c1 80 ab 	ab80c108     memw (r0 ++ #4) = r1
     7cc:	01 c0 07 6a 	6a07c001     r1 = m1
     7d0:	08 c1 80 ab 	ab80c108     memw (r0 ++ #4) = r1
     7d4:	01 c0 08 6a 	6a08c001     r1 = usr
     7d8:	00 c1 80 a1 	a180c100     memw (r0 + #0) = r1
     7dc:	00 c0 00 a0 	a000c000     dccleana (r0)
     7e0:	80 c0 00 b0 	b000c080     r0 = add (r0, #4)
     7e4:	01 c0 09 6a 	6a09c001     r1 = pc
     7e8:	08 c1 80 ab 	ab80c108     memw (r0 ++ #4) = r1
     7ec:	01 c0 0a 6a 	6a0ac001     r1 = ugp
     7f0:	08 c1 80 ab 	ab80c108     memw (r0 ++ #4) = r1
     7f4:	01 c0 80 6e 	6e80c001     r1 = sgp0
     7f8:	08 c1 80 ab 	ab80c108     memw (r0 ++ #4) = r1
     7fc:	01 c0 86 6e 	6e86c001     r1 = ssr
     800:	08 c1 80 ab 	ab80c108     memw (r0 ++ #4) = r1
     804:	01 c0 8a 6e 	6e8ac001     r1 = imask
     808:	08 c1 80 ab 	ab80c108     memw (r0 ++ #4) = r1
     80c:	01 c0 89 6e 	6e89c001     r1 = badva
     810:	08 c1 80 ab 	ab80c108     memw (r0 ++ #4) = r1
     814:	01 c0 83 6e 	6e83c001     r1 = elr
     818:	08 c1 80 ab 	ab80c108     memw (r0 ++ #4) = r1
     81c:	01 c0 82 6e 	6e82c001     r1 = stid
     820:	00 c1 80 a1 	a180c100     memw (r0 + #0) = r1
     824:	00 c0 00 a0 	a000c000     dccleana (r0)
     828:	80 c0 00 b0 	b000c080     r0 = add (r0, #4)
     82c:	01 c0 90 6e 	6e90c001     r1 = evb
     830:	08 c1 80 ab 	ab80c108     memw (r0 ++ #4) = r1
     834:	01 c0 94 6e 	6e94c001     r1 = ipend
     838:	08 c1 80 ab 	ab80c108     memw (r0 ++ #4) = r1
     83c:	01 c0 92 6e 	6e92c001     r1 = syscfg
     840:	08 c1 80 ab 	ab80c108     memw (r0 ++ #4) = r1
     844:	01 c0 91 6e 	6e91c001     r1 = modectl
     848:	08 c1 80 ab 	ab80c108     memw (r0 ++ #4) = r1
     84c:	01 c0 9d 6e 	6e9dc001     r1 = rev
     850:	08 c1 80 ab 	ab80c108     memw (r0 ++ #4) = r1
     854:	01 c0 00 78 	7800c001     r1 = #0
     858:	08 c1 80 ab 	ab80c108     memw (r0 ++ #4) = r1
     85c:	01 c0 00 78 	7800c001     r1 = #0
     860:	08 c1 80 ab 	ab80c108     memw (r0 ++ #4) = r1
     864:	01 c0 00 78 	7800c001     r1 = #0
     868:	00 c1 80 a1 	a180c100     memw (r0 + #0) = r1
     86c:	00 c0 00 a0 	a000c000     dccleana (r0)
     870:	80 c0 00 b0 	b000c080     r0 = add (r0, #4)
     874:	01 c0 9c 6e 	6e9cc001     r1 = diag
     878:	08 c1 80 ab 	ab80c108     memw (r0 ++ #4) = r1
     87c:	01 c0 96 6e 	6e96c001     r1 = iad
     880:	08 c1 80 ab 	ab80c108     memw (r0 ++ #4) = r1
     884:	01 c0 98 6e 	6e98c001     r1 = iel
     888:	08 c1 80 ab 	ab80c108     memw (r0 ++ #4) = r1
     88c:	01 c0 9a 6e 	6e9ac001     r1 = iahl
     890:	08 c1 80 ab 	ab80c108     memw (r0 ++ #4) = r1
     894:	01 c0 9f 6e 	6e9fc001     r1 = pcyclehi
     898:	08 c1 80 ab 	ab80c108     memw (r0 ++ #4) = r1
     89c:	01 c0 9e 6e 	6e9ec001     r1 = pcyclelo
     8a0:	08 c1 80 ab 	ab80c108     memw (r0 ++ #4) = r1
     8a4:	01 c0 a0 6e 	6ea0c001     r1 = isdbst
     8a8:	08 c1 80 ab 	ab80c108     memw (r0 ++ #4) = r1
     8ac:	01 c0 a1 6e 	6ea1c001     r1 = isdbcfg0
     8b0:	00 c1 80 a1 	a180c100     memw (r0 + #0) = r1
     8b4:	00 c0 00 a0 	a000c000     dccleana (r0)
     8b8:	80 c0 00 b0 	b000c080     r0 = add (r0, #4)
     8bc:	01 c0 a2 6e 	6ea2c001     r1 = isdbcfg1
     8c0:	08 c1 80 ab 	ab80c108     memw (r0 ++ #4) = r1
     8c4:	01 c0 a4 6e 	6ea4c001     r1 = brkptpc0
     8c8:	08 c1 80 ab 	ab80c108     memw (r0 ++ #4) = r1
     8cc:	01 c0 a5 6e 	6ea5c001     r1 = brkptcfg0
     8d0:	08 c1 80 ab 	ab80c108     memw (r0 ++ #4) = r1
     8d4:	01 c0 a6 6e 	6ea6c001     r1 = brkptpc1
     8d8:	08 c1 80 ab 	ab80c108     memw (r0 ++ #4) = r1
     8dc:	01 c0 a7 6e 	6ea7c001     r1 = brkptcfg1
     8e0:	08 c1 80 ab 	ab80c108     memw (r0 ++ #4) = r1
     8e4:	01 c0 aa 6e 	6eaac001     r1 = isdben
     8e8:	08 c1 80 ab 	ab80c108     memw (r0 ++ #4) = r1
     8ec:	01 c0 ab 6e 	6eabc001     r1 = isdbgpr
     8f0:	00 c1 80 a1 	a180c100     memw (r0 + #0) = r1
     8f4:	00 c0 00 a0 	a000c000     dccleana (r0)
     8f8:	61 f7 80 97 	9780f761     r1 = memw (r0 + #-276)
     8fc:	00 c0 86 6e 	6e86c000     r0 = ssr
     900:	20 d0 c0 8c 	8cc0d020     r0 = clrbit (r0, #16)
     904:	20 d1 c0 8c 	8cc0d120     r0 = clrbit (r0, #17)
     908:	06 c0 00 67 	6700c006     ssr = r0
     90c:	02 c0 c0 57 	57c0c002     isync
     910:	a0 d9 00 78 	7800d9a0     r0 = #205
     914:	00 c0 00 54 	5400c000     trap0 (#0)
     918:	e0 ff df 78 	78dfffe0     r0 = #-1
     91c:	00 c0 60 64 	6460c000     stop (r0)

00000920 <event_handle_reset>:
     920:	01 c0 88 6e 	6e88c001     r1 = htid
     924:	00 40 3c 72 	723c4000     { r28.h = #0
     928:	00 40 3d 72 	723d4000       r29.h = #0
     92c:	00 c0 20 72 	7220c000       r0.h = #0 }
     930:	64 5a 3c 71 	713c5a64     { r28.l = #6756
     934:	41 42 01 8c 	8c014241       r1 = asl (r1, #2)
     938:	7c 5a 3d 71 	713d5a7c       r29.l = #6780
     93c:	94 da 20 71 	7120da94       r0.l = #6804 }
     940:	1c 41 1c f3 	f31c411c     { r28 = add (r28, r1)
     944:	1d 41 1d f3 	f31d411d       r29 = add (r29, r1)
     948:	00 c1 00 f3 	f300c100       r0 = add (r0, r1) }
     94c:	02 c0 00 78 	7800c002     r2 = #0
     950:	06 c0 02 67 	6702c006     ssr = r2
     954:	02 c0 c0 57 	57c0c002     isync
     958:	0a c0 02 67 	6702c00a     imask = r2
     95c:	00 c0 22 72 	7222c000     r2.h = #0
     960:	4c da 22 71 	7122da4c     r2.l = #6732
     964:	02 c1 02 f3 	f302c102     r2 = add (r2, r1)
     968:	02 c0 82 91 	9182c002     r2 = memw (r2 + #0)
     96c:	00 c0 02 67 	6702c000     sgp0 = r2
     970:	03 c0 22 72 	7222c003     r2.h = #3
     974:	00 c0 e2 71 	71e2c000     r2.l = #49152
     978:	0b c0 22 62 	6222c00b     gp = r2
     97c:	04 c0 22 72 	7222c004     r2.h = #4
     980:	00 c0 22 71 	7122c000     r2.l = #0
     984:	06 c0 02 67 	6702c006     ssr = r2
     988:	01 c0 22 72 	7222c001     r2.h = #1
     98c:	08 c0 22 62 	6222c008     usr = r2
     990:	13 c0 22 72 	7222c013     r2.h = #19
     994:	07 c0 02 67 	6702c007     ccr = r2
     998:	02 c0 c0 57 	57c0c002     isync
     99c:	be fa a2 72 	72a2fabe     r2.h = #47806
     9a0:	ef fe a2 71 	71a2feef     r2.l = #48879
     9a4:	23 30 21 30 	30213023     r1 = r2 ; r3 = r2
     9a8:	04 42 03 f5 	f5034204     { r5:4 = combine (r3, r2)
     9ac:	06 42 03 f5 	f5034206       r7:6 = combine (r3, r2)
     9b0:	08 42 03 f5 	f5034208       r9:8 = combine (r3, r2)
     9b4:	0a c2 03 f5 	f503c20a       r11:10 = combine (r3, r2) }
     9b8:	0c 42 03 f5 	f503420c     { r13:12 = combine (r3, r2)
     9bc:	0e 42 03 f5 	f503420e       r15:14 = combine (r3, r2)
     9c0:	10 42 03 f5 	f5034210       r17:16 = combine (r3, r2)
     9c4:	12 c2 03 f5 	f503c212       r19:18 = combine (r3, r2) }
     9c8:	14 42 03 f5 	f5034214     { r21:20 = combine (r3, r2)
     9cc:	16 42 03 f5 	f5034216       r23:22 = combine (r3, r2)
     9d0:	18 42 03 f5 	f5034218       r25:24 = combine (r3, r2)
     9d4:	1a c2 03 f5 	f503c21a       r27:26 = combine (r3, r2) }
     9d8:	00 40 3f 72 	723f4000     { r31.h = #0
     9dc:	1c 40 9c 91 	919c401c       r28 = memw (r28 + #0)
     9e0:	1d c0 9d 91 	919dc01d       r29 = memw (r29 + #0) }
     9e4:	40 51 7f 71 	717f5140     { r31.l = #20800
     9e8:	08 40 00 58 	58004008       jump 9f4 <thread_start>
     9ec:	1e 40 00 78 	7800401e       r30 = #0
     9f0:	00 c0 80 91 	9180c000       r0 = memw (r0 + #0) }

000009f4 <thread_start>:
     9f4:	00 c0 9c 52 	529cc000     jumpr r28

000009f8 <event_handle_nmi>:
     9f8:	20 c0 00 78 	7800c020     r0 = #1
     9fc:	02 c0 00 67 	6700c002     stid = r0
     a00:	98 fe ff 59 	59fffe98     jump 730 <__coredump>

00000a04 <event_handle_error>:
     a04:	40 c0 00 78 	7800c040     r0 = #2
     a08:	02 c0 00 67 	6700c002     stid = r0
     a0c:	92 fe ff 59 	59fffe92     jump 730 <__coredump>

00000a10 <event_handle_rsvd>:
     a10:	ad de e0 72 	72e0dead     r0.h = #57005
     a14:	ef fe a0 71 	71a0feef     r0.l = #48879
     a18:	02 c0 00 67 	6700c002     stid = r0
     a1c:	8a fe ff 59 	59fffe8a     jump 730 <__coredump>
     a20:	00 40 00 7f 	7f004000     { nop
     a24:	00 40 00 7f 	7f004000       nop
     a28:	00 40 00 7f 	7f004000       nop
     a2c:	00 c0 00 7f 	7f00c000       nop }
     a30:	00 40 00 7f 	7f004000     { nop
     a34:	00 40 00 7f 	7f004000       nop
     a38:	00 40 00 7f 	7f004000       nop
     a3c:	00 c0 00 7f 	7f00c000       nop }

00000a40 <event_handle_tlbmissx>:
     a40:	00 c0 1d 65 	651dc000     crswap (r29, sgp0)
     a44:	1d f8 fd bf 	bffdf81d     r29 = add (r29, #-64)
     a48:	00 c0 dd a1 	a1ddc000     memd (r29 + #0) = r1:0
     a4c:	01 c2 dd a1 	a1ddc201     memd (r29 + #8) = r3:2
     a50:	02 c4 dd a1 	a1ddc402     memd (r29 + #16) = r5:4
     a54:	03 c6 dd a1 	a1ddc603     memd (r29 + #24) = r7:6
     a58:	04 c8 dd a1 	a1ddc804     memd (r29 + #32) = r9:8
     a5c:	09 c0 04 6a 	6a04c009     r9 = p3:0
     a60:	08 c0 86 6e 	6e86c008     r8 = ssr
     a64:	07 c0 83 6e 	6e83c007     r7 = elr
     a68:	01 c0 08 85 	8508c001     p1 = tstbit (r8, #0)
     a6c:	27 4c 07 8c 	8c074c27     { r7 = lsr (r7, #12)
     a70:	08 41 20 5c 	5c204108       if !p1 jump a7c <event_handle_tlbmissx+0x3c>
     a74:	00 c0 20 72 	7220c000       r0.h = #0 }
     a78:	27 c0 07 b0 	b007c027     r7 = add (r7, #1)
     a7c:	04 5b 20 71 	71205b04     { r0.l = #6916
     a80:	c1 c0 00 78 	7800c0c1       r1 = #6 }
     a84:	06 c0 00 92 	9200c006     r6 = memw_locked (r0)
     a88:	26 40 06 b0 	b0064026     { r6 = add (r6, #1)
     a8c:	c0 cf 46 75 	7546cfc0       p0 = cmp.gt (r6, #126) }
     a90:	06 46 01 f4 	f4014606     { r6 = mux (p0, r1, r6)
     a94:	00 c0 23 72 	7223c000       r3.h = #0 }
     a98:	00 c6 a0 a0 	a0a0c600     memw_locked (r0, p0) = r6
     a9c:	f4 60 ff 5c 	5cff60f4     { if !p0 jump a84 <event_handle_tlbmissx+0x44>
     aa0:	5c cf 23 71 	7123cf5c       r3.l = #3932 }
     aa4:	27 48 07 8c 	8c074827     { r7 = lsr (r7, #8)
     aa8:	03 c0 83 91 	9183c003       r3 = memw (r3 + #0) }
     aac:	23 c3 07 c4 	c407c323     r3 = addasl (r3, r7, #1)
     ab0:	47 48 07 8c 	8c074847     { r7 = asl (r7, #8)
     ab4:	03 c0 43 91 	9143c003       r3 = memh (r3 + #0) }
     ab8:	85 cc 03 8d 	8d03cc85     r5 = extractu (r3, #12, #4)
     abc:	04 44 03 8d 	8d034404     { r4 = extractu (r3, #4, #0)
     ac0:	01 28 00 29 	29002801       r0 = #16 ; r1 = #0 }
     ac4:	44 58 04 8c 	8c045844     { r4 = asl (r4, #24)
     ac8:	00 40 e1 72 	72e14000       r1.h = #49152
     acc:	00 f0 e0 72 	72e0f000       r0.h = #61440 }
     ad0:	01 47 21 f1 	f1214701     { r1 = or (r1, r7)
     ad4:	c0 c9 45 8e 	8e45c9c0       r0 |= asl (r5, #9) }
     ad8:	00 44 20 f1 	f1204400     { r0 = or (r0, r4)
     adc:	00 c0 24 72 	7224c000       r4.h = #0 }
     ae0:	00 5b 24 71 	71245b00     { r4.l = #6912
     ae4:	25 c0 00 78 	7800c025       r5 = #1 }
     ae8:	02 c0 04 92 	9204c002     r2 = memw_locked (r4)
     aec:	00 c0 02 75 	7502c000     p0 = cmp.eq (r2, #0)
     af0:	fc e0 ff 5c 	5cffe0fc     if !p0 jump ae8 <event_handle_tlbmissx+0xa8>
     af4:	00 c5 a4 a0 	a0a4c500     memw_locked (r4, p0) = r5
     af8:	f8 e0 ff 5c 	5cffe0f8     if !p0 jump ae8 <event_handle_tlbmissx+0xa8>
     afc:	05 c0 81 6c 	6c81c005     r5 = tlbp (r1)
     b00:	00 df 05 85 	8505df00     p0 = tstbit (r5, #31)
     b04:	06 c0 20 5c 	5c20c006     if !p0 jump b10 <event_handle_tlbmissx+0xd0>
     b08:	00 c6 00 6c 	6c00c600     tlbw (r1:0, r6)
     b0c:	02 c0 c0 57 	57c0c002     isync
     b10:	01 c0 00 78 	7800c001     r1 = #0
     b14:	02 c0 04 92 	9204c002     r2 = memw_locked (r4)
     b18:	00 c1 a4 a0 	a0a4c100     memw_locked (r4, p0) = r1
     b1c:	fc e0 ff 5c 	5cffe0fc     if !p0 jump b14 <event_handle_tlbmissx+0xd4>
     b20:	04 c0 29 62 	6229c004     p3:0 = r9
     b24:	88 40 dd 91 	91dd4088     { r9:8 = memd (r29 + #32)
     b28:	66 c0 dd 91 	91ddc066       r7:6 = memd (r29 + #24) }
     b2c:	09 1e 12 3e 	3e121e09     r5:4 = memd (sp + #16) ; r3:2 = memd (sp + #8)
     b30:	1d 48 1d b0 	b01d481d     { r29 = add (r29, #64)
     b34:	00 c0 dd 91 	91ddc000       r1:0 = memd (r29 + #0) }
     b38:	00 c0 1d 65 	651dc000     crswap (r29, sgp0)
     b3c:	00 c0 e0 57 	57e0c000     rte

00000b40 <event_handle_tlbmissrw>:
     b40:	00 c0 1d 65 	651dc000     crswap (r29, sgp0)
     b44:	1d f8 fd bf 	bffdf81d     r29 = add (r29, #-64)
     b48:	00 c0 dd a1 	a1ddc000     memd (r29 + #0) = r1:0
     b4c:	01 c2 dd a1 	a1ddc201     memd (r29 + #8) = r3:2
     b50:	02 c4 dd a1 	a1ddc402     memd (r29 + #16) = r5:4
     b54:	03 c6 dd a1 	a1ddc603     memd (r29 + #24) = r7:6
     b58:	04 c8 dd a1 	a1ddc804     memd (r29 + #32) = r9:8
     b5c:	08 c0 86 6e 	6e86c008     r8 = ssr
     b60:	07 c0 89 6e 	6e89c007     r7 = badva
     b64:	09 40 04 6a 	6a044009     { r9 = p3:0
     b68:	04 5b 20 71 	71205b04       r0.l = #6916
     b6c:	c1 c0 00 78 	7800c0c1       r1 = #6 }
     b70:	27 54 07 8c 	8c075427     { r7 = lsr (r7, #20)
     b74:	00 c0 20 72 	7220c000       r0.h = #0 }
     b78:	06 c0 00 92 	9200c006     r6 = memw_locked (r0)
     b7c:	26 40 06 b0 	b0064026     { r6 = add (r6, #1)
     b80:	c0 4f 46 75 	75464fc0       p0 = cmp.gt (r6, #126)
     b84:	00 c0 23 72 	7223c000       r3.h = #0 }
     b88:	06 46 01 f4 	f4014606     { r6 = mux (p0, r1, r6)
     b8c:	5c cf 23 71 	7123cf5c       r3.l = #3932 }
     b90:	00 c6 a0 a0 	a0a0c600     memw_locked (r0, p0) = r6
     b94:	f2 e0 ff 5c 	5cffe0f2     if !p0 jump b78 <event_handle_tlbmissrw+0x38>
     b98:	03 c0 83 91 	9183c003     r3 = memw (r3 + #0)
     b9c:	04 c0 83 91 	9183c004     r4 = memw (r3 + #0)
     ba0:	c8 6d a4 61 	61a46dc8     { if (r4 == #0) jump:nt 730 <__coredump>
     ba4:	23 c3 07 c4 	c407c323       r3 = addasl (r3, r7, #1) }
     ba8:	47 48 07 8c 	8c074847     { r7 = asl (r7, #8)
     bac:	03 c0 43 91 	9143c003       r3 = memh (r3 + #0) }
     bb0:	85 cc 03 8d 	8d03cc85     r5 = extractu (r3, #12, #4)
     bb4:	04 44 03 8d 	8d034404     { r4 = extractu (r3, #4, #0)
     bb8:	01 28 00 29 	29002801       r0 = #16 ; r1 = #0 }
     bbc:	44 58 04 8c 	8c045844     { r4 = asl (r4, #24)
     bc0:	00 40 e1 72 	72e14000       r1.h = #49152
     bc4:	00 f0 e0 72 	72e0f000       r0.h = #61440 }
     bc8:	01 47 21 f1 	f1214701     { r1 = or (r1, r7)
     bcc:	c0 c9 45 8e 	8e45c9c0       r0 |= asl (r5, #9) }
     bd0:	00 44 20 f1 	f1204400     { r0 = or (r0, r4)
     bd4:	00 c0 24 72 	7224c000       r4.h = #0 }
     bd8:	00 5b 24 71 	71245b00     { r4.l = #6912
     bdc:	25 c0 00 78 	7800c025       r5 = #1 }
     be0:	02 c0 04 92 	9204c002     r2 = memw_locked (r4)
     be4:	00 c5 a4 a0 	a0a4c500     memw_locked (r4, p0) = r5
     be8:	01 c0 02 75 	7502c001     p1 = cmp.eq (r2, #0)
     bec:	fa e0 ff 5c 	5cffe0fa     if !p0 jump be0 <event_handle_tlbmissrw+0xa0>
     bf0:	f8 e1 ff 5c 	5cffe1f8     if !p1 jump be0 <event_handle_tlbmissrw+0xa0>
     bf4:	05 c0 81 6c 	6c81c005     r5 = tlbp (r1)
     bf8:	00 df 05 85 	8505df00     p0 = tstbit (r5, #31)
     bfc:	06 c0 20 5c 	5c20c006     if !p0 jump c08 <event_handle_tlbmissrw+0xc8>
     c00:	00 c6 00 6c 	6c00c600     tlbw (r1:0, r6)
     c04:	02 c0 c0 57 	57c0c002     isync
     c08:	01 c0 00 78 	7800c001     r1 = #0
     c0c:	02 c0 04 92 	9204c002     r2 = memw_locked (r4)
     c10:	00 c1 a4 a0 	a0a4c100     memw_locked (r4, p0) = r1
     c14:	fc e0 ff 5c 	5cffe0fc     if !p0 jump c0c <event_handle_tlbmissrw+0xcc>
     c18:	04 c0 29 62 	6229c004     p3:0 = r9
     c1c:	88 40 dd 91 	91dd4088     { r9:8 = memd (r29 + #32)
     c20:	66 c0 dd 91 	91ddc066       r7:6 = memd (r29 + #24) }
     c24:	09 1e 12 3e 	3e121e09     r5:4 = memd (sp + #16) ; r3:2 = memd (sp + #8)
     c28:	1d 48 1d b0 	b01d481d     { r29 = add (r29, #64)
     c2c:	00 c0 dd 91 	91ddc000       r1:0 = memd (r29 + #0) }
     c30:	00 c0 1d 65 	651dc000     crswap (r29, sgp0)
     c34:	00 c0 e0 57 	57e0c000     rte
     c38:	00 40 00 7f 	7f004000     { nop
     c3c:	00 c0 00 7f 	7f00c000       nop }

00000c40 <event_handle_trap0>:
     c40:	00 c0 1d 65 	651dc000     crswap (r29, sgp0)
     c44:	05 40 04 6a 	6a044005     { r5 = p3:0
     c48:	1d 7b fd bf 	bffd7b1d       r29 = add (r29, #-40)
     c4c:	00 48 00 75 	75004800       p0 = cmp.eq (r0, #64)
     c50:	fb e4 dd a7 	a7dde4fb       memd (r29 + #-40) = r5:4 }
     c54:	81 48 00 75 	75004881     { p1 = cmp.eq (r0, #68)
     c58:	42 4a 00 75 	75004a42       p2 = cmp.eq (r0, #82)
     c5c:	55 55 64 72 	72645555       r4.h = #21845
     c60:	01 c2 dd a1 	a1ddc201       memd (r29 + #8) = r3:2 }
     c64:	00 c0 23 72 	7223c000     r3.h = #0
     c68:	3c c0 23 71 	7123c03c     r3.l = #60
     c6c:	03 c0 83 91 	9183c003     r3 = memw (r3 + #0)
     c70:	23 40 03 75 	75034023     { p3 = cmp.eq (r3, #1)
     c74:	8e cb 00 5c 	5c00cb8e       if (p3.new) jump:nt d8c <ANGEL_call_host_poll+0x80> }
     c78:	7a 40 00 5c 	5c00407a     { if (p0) jump d6c <ANGEL_call_host_poll+0x60>
     c7c:	00 41 22 6b 	6b224100       p0 = or (p1, p2)
     c80:	55 55 64 71 	71645555       r4.l = #21845
     c84:	02 c6 dd a1 	a1ddc602       memd (r29 + #16) = r7:6 }
     c88:	72 40 00 5c 	5c004072     { if (p0) jump d6c <ANGEL_call_host_poll+0x60>
     c8c:	00 40 23 72 	72234000       r3.h = #0
     c90:	a6 59 00 78 	780059a6       r6 = #205
     c94:	03 c8 dd a1 	a1ddc803       memd (r29 + #24) = r9:8 }
     c98:	40 40 23 71 	71234040     { r3.l = #64
     c9c:	00 40 24 72 	72244000       r4.h = #0
     ca0:	02 43 00 75 	75004302       p2 = cmp.eq (r0, #24)
     ca4:	03 c6 00 f2 	f200c603       p3 = cmp.eq (r0, r6) }
     ca8:	09 40 65 70 	70654009     { r9 = r5
     cac:	03 42 23 6b 	6b234203       p3 = or (p2, p3)
     cb0:	20 40 24 71 	71244020       r4.l = #32
     cb4:	07 c0 83 91 	9183c007       r7 = memw (r3 + #0) }
     cb8:	08 40 88 6e 	6e884008     { r8 = htid
     cbc:	00 c0 00 7f 	7f00c000       nop }
     cc0:	02 40 26 72 	72264002     { r6.h = #2
     cc4:	70 43 00 5c 	5c004370       if (p3) jump da0 <ANGEL_call_host_poll+0x94>
     cc8:	00 40 07 75 	75074000       p0 = cmp.eq (r7, #0)
     ccc:	00 c0 00 7f 	7f00c000       nop }
     cd0:	00 40 07 75 	75074000     { p0 = cmp.eq (r7, #0)
     cd4:	00 40 20 5c 	5c204000       if !p0 jump cd0 <event_handle_trap0+0x90>
     cd8:	37 00 15 48 	48150037       r5 = #1 ; r7 = memw (r3 + #0) }
     cdc:	07 c0 03 92 	9203c007     r7 = memw_locked (r3)
     ce0:	01 c5 a3 a0 	a0a3c501     memw_locked (r3, p1) = r5
     ce4:	fc 61 ff 5c 	5cff61fc     { if !p1 jump cdc <event_handle_trap0+0x9c>
     ce8:	00 c0 07 75 	7507c000       p0 = cmp.eq (r7, #0) }
     cec:	f2 e0 ff 5c 	5cffe0f2     if !p0 jump cd0 <event_handle_trap0+0x90>
     cf0:	42 48 02 f4 	f4024842     { r2 = mux (p2, r2, r8)
     cf4:	00 c0 c4 a1 	a1c4c000       memd (r4 + #0) = r1:0 }
     cf8:	02 c2 84 a1 	a184c202     memw (r4 + #8) = r2
     cfc:	03 c5 84 a1 	a184c503     memw (r4 + #12) = r5
     d00:	00 c0 44 a0 	a044c000     dccleaninva (r4)
     d04:	e6 c1 04 91 	9104c1e6     r6 = memb (r4 + #15)
     d08:	00 c0 44 a0 	a044c000     dccleaninva (r4)

00000d0c <ANGEL_call_host_poll>:
     d0c:	00 c0 26 72 	7226c000     r6.h = #0
     d10:	3c c0 26 71 	7126c03c     r6.l = #60
     d14:	06 c0 86 91 	9186c006     r6 = memw (r6 + #0)
     d18:	0c 41 06 10 	1006410c     { p0 = cmp.eq (r6, #1) ; if (p0.new) jump:nt d30 <ANGEL_call_host_poll+0x24>
     d1c:	05 28 06 28 	28062805       r6 = #0 ; r5 = #0 }
     d20:	66 c0 84 91 	9184c066     r6 = memw (r4 + #12)
     d24:	00 c0 44 a0 	a044c000     dccleaninva (r4)
     d28:	05 40 00 78 	78004005     { r5 = #0
     d2c:	00 c0 c4 91 	91c4c000       r1:0 = memd (r4 + #0) }
     d30:	07 c0 03 92 	9203c007     r7 = memw_locked (r3)
     d34:	01 c5 a3 a0 	a0a3c501     memw_locked (r3, p1) = r5
     d38:	fc 61 ff 5c 	5cff61fc     { if !p1 jump d30 <ANGEL_call_host_poll+0x24>
     d3c:	84 28 60 79 	79602884       p0 = cmp.eq (r6, #0) ; memw (sp + #32) = r4 }
     d40:	10 40 20 5c 	5c204010     { if !p0 jump d60 <ANGEL_call_host_poll+0x54>
     d44:	13 1e 02 3e 	3e021e13       r5:4 = memd (sp + #0) ; r7:6 = memd (sp + #16) }
     d48:	04 40 29 62 	62294004     { p3:0 = r9
     d4c:	1d 45 1d b0 	b01d451d       r29 = add (r29, #40)
     d50:	22 40 dd 91 	91dd4022       r3:2 = memd (r29 + #8)
     d54:	68 c0 dd 91 	91ddc068       r9:8 = memd (r29 + #24) }
     d58:	00 c0 1d 65 	651dc000     crswap (r29, sgp0)
     d5c:	00 c0 e0 57 	57e0c000     rte
     d60:	20 58 00 78 	78005820     { r0 = #193
     d64:	b8 41 37 16 	163741b8       r7 = #1 ; jump cd0 <event_handle_trap0+0x90>
     d68:	04 c1 9d 91 	919dc104       r4 = memw (r29 + #32) }
     d6c:	01 c0 9f 6e 	6e9fc001     r1 = pcyclehi
     d70:	00 c0 9e 6e 	6e9ec000     r0 = pcyclelo
     d74:	0c 42 00 5c 	5c00420c     { if (p2) jump d8c <ANGEL_call_host_poll+0x80>
     d78:	02 44 40 e5 	e5404402       r3:2 = mpyu (r0, r4)
     d7c:	46 c0 dd 91 	91ddc046       r7:6 = memd (r29 + #16) }
     d80:	00 44 41 e5 	e5414400     { r1:0 = mpyu (r1, r4)
     d84:	22 e0 02 80 	8002e022       r3:2 = lsr (r3:2, #32) }
     d88:	e0 c2 00 d3 	d300c2e0     r1:0 = add (r1:0, r3:2)
     d8c:	04 40 25 62 	62254004     { p3:0 = r5
     d90:	1d 45 1d b0 	b01d451d       r29 = add (r29, #40)
     d94:	02 1e 09 3e 	3e091e02       r3:2 = memd (sp + #8) ; r5:4 = memd (sp + #0) }
     d98:	00 c0 1d 65 	651dc000     crswap (r29, sgp0)
     d9c:	00 c0 e0 57 	57e0c000     rte
     da0:	08 42 20 5c 	5c204208     { if !p2 jump db0 <ANGEL_call_host_poll+0xa4>
     da4:	26 c0 26 71 	7126c026       r6.l = #38 }
     da8:	02 46 01 f2 	f2014602     { p2 = cmp.eq (r1, r6)
     dac:	94 ff ff 59 	59ffff94       jump cd0 <event_handle_trap0+0x90> }
     db0:	00 c0 21 72 	7221c000     r1.h = #0
     db4:	78 cf 21 71 	7121cf78     r1.l = #3960
     db8:	01 c0 81 91 	9181c001     r1 = memw (r1 + #0)
     dbc:	8a ff ff 59 	59ffff8a     jump cd0 <event_handle_trap0+0x90>

00000dc0 <event_handle_trap1>:
     dc0:	20 c1 00 78 	7800c120     r0 = #9
     dc4:	02 c0 00 67 	6700c002     stid = r0
     dc8:	b4 fc ff 59 	59fffcb4     jump 730 <__coredump>

00000dcc <event_handle_int>:
     dcc:	00 c0 1d 65 	651dc000     crswap (r29, sgp0)
     dd0:	14 c0 9d a0 	a09dc014     allocframe (#160)
     dd4:	00 40 00 6a 	6a004000     { r0 = sa0
     dd8:	00 c0 dd a1 	a1ddc000       memd (r29 + #0) = r1:0 }
     ddc:	01 40 01 6a 	6a014001     { r1 = lc0
     de0:	01 c2 dd a1 	a1ddc201       memd (r29 + #8) = r3:2 }
     de4:	02 40 02 6a 	6a024002     { r2 = sa1
     de8:	02 c4 dd a1 	a1ddc402       memd (r29 + #16) = r5:4 }
     dec:	03 40 03 6a 	6a034003     { r3 = lc1
     df0:	03 c6 dd a1 	a1ddc603       memd (r29 + #24) = r7:6 }
     df4:	04 40 04 6a 	6a044004     { r4 = p3:0
     df8:	04 c8 dd a1 	a1ddc804       memd (r29 + #32) = r9:8 }
     dfc:	05 40 06 6a 	6a064005     { r5 = m0
     e00:	05 ca dd a1 	a1ddca05       memd (r29 + #40) = r11:10 }
     e04:	06 40 07 6a 	6a074006     { r6 = m1
     e08:	06 cc dd a1 	a1ddcc06       memd (r29 + #48) = r13:12 }
     e0c:	07 40 08 6a 	6a084007     { r7 = usr
     e10:	07 ce dd a1 	a1ddce07       memd (r29 + #56) = r15:14 }
     e14:	08 40 0a 6a 	6a0a4008     { r8 = ugp
     e18:	08 d0 dd a1 	a1ddd008       memd (r29 + #64) = r17:16 }
     e1c:	09 c0 83 6e 	6e83c009     r9 = elr
     e20:	09 d2 dd a1 	a1ddd209     memd (r29 + #72) = r19:18
     e24:	0a d4 dd a1 	a1ddd40a     memd (r29 + #80) = r21:20
     e28:	0b d6 dd a1 	a1ddd60b     memd (r29 + #88) = r23:22
     e2c:	0c d8 dd a1 	a1ddd80c     memd (r29 + #96) = r25:24
     e30:	0d da dd a1 	a1ddda0d     memd (r29 + #104) = r27:26
     e34:	0e c0 dd a1 	a1ddc00e     memd (r29 + #112) = r1:0
     e38:	00 c0 86 6e 	6e86c000     r0 = ssr
     e3c:	00 40 21 72 	72214000     { r1.h = #0
     e40:	07 48 40 8f 	8f404807       r7 = insert (r0, #8, #16)
     e44:	79 2a 02 70 	70022a79       r2 = r0 ; memd (sp + #120) = r3:2 }
     e48:	e0 43 00 76 	760043e0     { r0 = and (r0, #31)
     e4c:	80 4f 21 71 	71214f80       r1.l = #3968
     e50:	10 c4 dd a1 	a1ddc410       memd (r29 + #128) = r5:4 }
     e54:	41 41 00 c4 	c4004141     { r1 = addasl (r1, r0, #2)
     e58:	11 c6 dd a1 	a1ddc611       memd (r29 + #136) = r7:6 }
     e5c:	03 40 00 78 	78004003     { r3 = #0
     e60:	1f 40 7c 70 	707c401f       r31 = r28
     e64:	01 40 81 91 	91814001       r1 = memw (r1 + #0)
     e68:	12 c8 dd a1 	a1ddc812       memd (r29 + #144) = r9:8 }
     e6c:	02 43 43 8f 	8f434302     { r2 = insert (r3, #3, #16)
     e70:	00 40 01 75 	75014000       p0 = cmp.eq (r1, #0)
     e74:	13 de dd a1 	a1ddde13       memd (r29 + #152) = r31:30 }
     e78:	1e c0 00 5c 	5c00c01e     if (p0) jump eb4 <event_handle_int+0xe8>
     e7c:	06 c0 02 67 	6702c006     ssr = r2
     e80:	00 c0 1d 65 	651dc000     crswap (r29, sgp0)
     e84:	00 c0 a1 50 	50a1c000     callr r1
     e88:	00 c0 1d 65 	651dc000     crswap (r29, sgp0)
     e8c:	00 c0 86 6e 	6e86c000     r0 = ssr
     e90:	00 40 3a 72 	723a4000     { r26.h = #0
     e94:	8b 3e 61 48 	48613e8b       r1 = #6 ; r7:6 = memd (sp + #136) }
     e98:	07 40 27 70 	70274007     { r7 = asrh (r7)
     e9c:	00 43 41 8f 	8f414300       r0 = insert (r1, #3, #16)
     ea0:	01 c0 3a 71 	713ac001       r26.l = #1 }
     ea4:	e7 c3 07 76 	7607c3e7     r7 = and (r7, #31)
     ea8:	da c7 5a c6 	c65ac7da     r26 = lsl (r26, r7)
     eac:	06 c0 00 67 	6700c006     ssr = r0
     eb0:	60 c0 1a 64 	641ac060     ciad (r26)
     eb4:	7e 42 dd 91 	91dd427e     { r31:30 = memd (r29 + #152)
     eb8:	48 c2 dd 91 	91ddc248       r9:8 = memd (r29 + #144) }
     ebc:	03 c0 09 67 	6709c003     elr = r9
     ec0:	0a 40 28 62 	6228400a     { ugp = r8
     ec4:	82 1e 8b 3e 	3e8b1e82       r7:6 = memd (sp + #136) ; r5:4 = memd (sp + #128) }
     ec8:	08 40 27 62 	62274008     { usr = r7
     ecc:	1c 40 7f 70 	707f401c       r28 = r31
     ed0:	70 1e 79 3e 	3e791e70       r3:2 = memd (sp + #120) ; r1:0 = memd (sp + #112) }
     ed4:	07 40 26 62 	62264007     { m1 = r6
     ed8:	ba 41 dd 91 	91dd41ba       r27:26 = memd (r29 + #104)
     edc:	98 c1 dd 91 	91ddc198       r25:24 = memd (r29 + #96) }
     ee0:	06 40 25 62 	62254006     { m0 = r5
     ee4:	56 1e 5f 3e 	3e5f1e56       r23:22 = memd (sp + #88) ; r21:20 = memd (sp + #80) }
     ee8:	04 40 24 62 	62244004     { p3:0 = r4
     eec:	44 1e 4d 3e 	3e4d1e44       r19:18 = memd (sp + #72) ; r17:16 = memd (sp + #64) }
     ef0:	03 40 23 62 	62234003     { lc1 = r3
     ef4:	ee 40 dd 91 	91dd40ee       r15:14 = memd (r29 + #56)
     ef8:	cc c0 dd 91 	91ddc0cc       r13:12 = memd (r29 + #48) }
     efc:	02 40 22 62 	62224002     { sa1 = r2
     f00:	aa 40 dd 91 	91dd40aa       r11:10 = memd (r29 + #40)
     f04:	88 c0 dd 91 	91ddc088       r9:8 = memd (r29 + #32) }
     f08:	01 40 21 62 	62214001     { lc0 = r1
     f0c:	12 1e 1b 3e 	3e1b1e12       r7:6 = memd (sp + #24) ; r5:4 = memd (sp + #16) }
     f10:	00 40 20 62 	62204000     { sa0 = r0
     f14:	00 1e 09 3e 	3e091e00       r3:2 = memd (sp + #8) ; r1:0 = memd (sp + #0) }
     f18:	1e c0 1e 90 	901ec01e     deallocframe
     f1c:	00 c0 1d 65 	651dc000     crswap (r29, sgp0)
     f20:	00 c0 e0 57 	57e0c000     rte
     f24:	00 40 00 7f 	7f004000     { nop
     f28:	00 40 00 7f 	7f004000       nop
     f2c:	00 c0 00 7f 	7f00c000       nop }

00000f30 <.NoHandler>:
     f30:	00 c0 9f 52 	529fc000     jumpr r31
	...

00000f40 <l2CacheSize>:
     f40:	03 00 00 00 	00000003     r0 = memw (r0 + #0) ; r3 = memw (r0 + #0)

00000f44 <ICacheEnable>:
     f44:	01 00 00 00 	00000001     r0 = memw (r0 + #0) ; r1 = memw (r0 + #0)

00000f48 <ICachePrefetch>:
     f48:	01 00 00 00 	00000001     r0 = memw (r0 + #0) ; r1 = memw (r0 + #0)

00000f4c <DCacheEnable>:
     f4c:	01 00 00 00 	00000001     r0 = memw (r0 + #0) ; r1 = memw (r0 + #0)

00000f50 <DCachePrefetch>:
     f50:	01 00 00 00 	00000001     r0 = memw (r0 + #0) ; r1 = memw (r0 + #0)

00000f54 <l2WriteBack>:
     f54:	01 00 00 00 	00000001     r0 = memw (r0 + #0) ; r1 = memw (r0 + #0)

00000f58 <EventVectorBase>:
     f58:	00 40 00 00 	00004000     { immext (#0)

00000f5c <TLBMapTable>:
     f5c:	40 1d 00 00 	00001d40       r0 = memw (r0 + #0) ; r0 = memub (r4 + #13) }

00000f60 <EnableTranslation>:
     f60:	01 00 00 00 	00000001     r0 = memw (r0 + #0) ; r1 = memw (r0 + #0)

00000f64 <UseDefaultTLBMissHandler>:
     f64:	01 00 00 00 	00000001     r0 = memw (r0 + #0) ; r1 = memw (r0 + #0)

00000f68 <Enable64TLBs>:
     f68:	01 00 00 00 	00000001     r0 = memw (r0 + #0) ; r1 = memw (r0 + #0)

00000f6c <EnablePcycle>:
     f6c:	01 00 00 00 	00000001     r0 = memw (r0 + #0) ; r1 = memw (r0 + #0)

00000f70 <EnableDMT>:
     f70:	01 00 00 00 	00000001     r0 = memw (r0 + #0) ; r1 = memw (r0 + #0)

00000f74 <EnableQoS>:
     f74:	01 00 00 00 	00000001     r0 = memw (r0 + #0) ; r1 = memw (r0 + #0)

00000f78 <CoreDump>:
     f78:	00 10 00 00 	00001000     r0 = memw (r0 + #0) ; r0 = memub (r0 + #0)
     f7c:	00 00 00 00 	00000000     r0 = memw (r0 + #0) ; r0 = memw (r0 + #0)

00000f80 <__IntHandlers>:
     f80:	30 0f 00 00 	00000f30     r0 = memw (r0 + #0) ; r0 = memw (r3 + #60)
     f84:	30 0f 00 00 	00000f30     r0 = memw (r0 + #0) ; r0 = memw (r3 + #60)
     f88:	30 0f 00 00 	00000f30     r0 = memw (r0 + #0) ; r0 = memw (r3 + #60)
     f8c:	30 0f 00 00 	00000f30     r0 = memw (r0 + #0) ; r0 = memw (r3 + #60)
     f90:	30 0f 00 00 	00000f30     r0 = memw (r0 + #0) ; r0 = memw (r3 + #60)
     f94:	30 0f 00 00 	00000f30     r0 = memw (r0 + #0) ; r0 = memw (r3 + #60)
     f98:	30 0f 00 00 	00000f30     r0 = memw (r0 + #0) ; r0 = memw (r3 + #60)
     f9c:	30 0f 00 00 	00000f30     r0 = memw (r0 + #0) ; r0 = memw (r3 + #60)
     fa0:	30 0f 00 00 	00000f30     r0 = memw (r0 + #0) ; r0 = memw (r3 + #60)
     fa4:	30 0f 00 00 	00000f30     r0 = memw (r0 + #0) ; r0 = memw (r3 + #60)
     fa8:	30 0f 00 00 	00000f30     r0 = memw (r0 + #0) ; r0 = memw (r3 + #60)
     fac:	30 0f 00 00 	00000f30     r0 = memw (r0 + #0) ; r0 = memw (r3 + #60)
     fb0:	30 0f 00 00 	00000f30     r0 = memw (r0 + #0) ; r0 = memw (r3 + #60)
     fb4:	30 0f 00 00 	00000f30     r0 = memw (r0 + #0) ; r0 = memw (r3 + #60)
     fb8:	30 0f 00 00 	00000f30     r0 = memw (r0 + #0) ; r0 = memw (r3 + #60)
     fbc:	30 0f 00 00 	00000f30     r0 = memw (r0 + #0) ; r0 = memw (r3 + #60)
     fc0:	30 0f 00 00 	00000f30     r0 = memw (r0 + #0) ; r0 = memw (r3 + #60)
     fc4:	30 0f 00 00 	00000f30     r0 = memw (r0 + #0) ; r0 = memw (r3 + #60)
     fc8:	30 0f 00 00 	00000f30     r0 = memw (r0 + #0) ; r0 = memw (r3 + #60)
     fcc:	30 0f 00 00 	00000f30     r0 = memw (r0 + #0) ; r0 = memw (r3 + #60)
     fd0:	30 0f 00 00 	00000f30     r0 = memw (r0 + #0) ; r0 = memw (r3 + #60)
     fd4:	30 0f 00 00 	00000f30     r0 = memw (r0 + #0) ; r0 = memw (r3 + #60)
     fd8:	30 0f 00 00 	00000f30     r0 = memw (r0 + #0) ; r0 = memw (r3 + #60)
     fdc:	30 0f 00 00 	00000f30     r0 = memw (r0 + #0) ; r0 = memw (r3 + #60)
     fe0:	30 0f 00 00 	00000f30     r0 = memw (r0 + #0) ; r0 = memw (r3 + #60)
     fe4:	30 0f 00 00 	00000f30     r0 = memw (r0 + #0) ; r0 = memw (r3 + #60)
     fe8:	30 0f 00 00 	00000f30     r0 = memw (r0 + #0) ; r0 = memw (r3 + #60)
     fec:	30 0f 00 00 	00000f30     r0 = memw (r0 + #0) ; r0 = memw (r3 + #60)
     ff0:	30 0f 00 00 	00000f30     r0 = memw (r0 + #0) ; r0 = memw (r3 + #60)
     ff4:	30 0f 00 00 	00000f30     r0 = memw (r0 + #0) ; r0 = memw (r3 + #60)
     ff8:	30 0f 00 00 	00000f30     r0 = memw (r0 + #0) ; r0 = memw (r3 + #60)
     ffc:	30 0f 00 00 	00000f30     r0 = memw (r0 + #0) ; r0 = memw (r3 + #60)

00001000 <RegDump>:
	...

00001120 <exc_stack_lim0>:
	...

000012a0 <exc_stack_top0>:
	...

000012a8 <exc_stack_lim1>:
	...

00001428 <exc_stack_top1>:
	...

00001430 <exc_stack_lim2>:
	...

000015b0 <exc_stack_top2>:
	...

000015b8 <exc_stack_lim3>:
	...

00001738 <exc_stack_top3>:
	...

00001740 <exc_stack_lim4>:
	...

000018c0 <exc_stack_top4>:
	...

000018c8 <exc_stack_lim5>:
	...

00001a48 <exc_stack_top5>:
    1a48:	00 00 00 00 	00000000     r0 = memw (r0 + #0) ; r0 = memw (r0 + #0)

00001a4c <exc_stack_tops>:
    1a4c:	a0 12 00 00 	000012a0     r0 = memw (r0 + #0) ; r0 = memub (r18 + #2)
    1a50:	28 14 00 00 	00001428     r0 = memw (r0 + #0) ; r16 = memub (r2 + #4)
    1a54:	b0 15 00 00 	000015b0     r0 = memw (r0 + #0) ; r0 = memub (r19 + #5)
    1a58:	38 17 00 00 	00001738     r0 = memw (r0 + #0) ; r16 = memub (r3 + #7)
    1a5c:	c0 18 00 00 	000018c0     r0 = memw (r0 + #0) ; r0 = memub (r20 + #8)
    1a60:	48 1a 00 00 	00001a48     r0 = memw (r0 + #0) ; r16 = memub (r4 + #10)

00001a64 <__start_pc>:
    1a64:	30 07 00 00 	00000730     r0 = memw (r0 + #0) ; r0 = memw (r3 + #28)
    1a68:	30 07 00 00 	00000730     r0 = memw (r0 + #0) ; r0 = memw (r3 + #28)
    1a6c:	30 07 00 00 	00000730     r0 = memw (r0 + #0) ; r0 = memw (r3 + #28)
    1a70:	30 07 00 00 	00000730     r0 = memw (r0 + #0) ; r0 = memw (r3 + #28)
    1a74:	30 07 00 00 	00000730     r0 = memw (r0 + #0) ; r0 = memw (r3 + #28)
    1a78:	30 07 00 00 	00000730     r0 = memw (r0 + #0) ; r0 = memw (r3 + #28)

00001a7c <__start_sp>:
	...

00001a94 <__start_param>:
	...

00001aac <__stack_size>:
	...

00001ac4 <v5_syscfg_l2_table>:
    1ac4:	00 02 03 00 	00030200     r3 = memw (r0 + #0) ; r0 = memw (r0 + #8)
    1ac8:	04 00 04 00 	00040004     r4 = memw (r0 + #0) ; r4 = memw (r0 + #0)
	...

00001b00 <__tlb_lock>:
    1b00:	00 00 00 00 	00000000     r0 = memw (r0 + #0) ; r0 = memw (r0 + #0)

00001b04 <__tlb_idx>:
    1b04:	05 00 00 00 	00000005     r0 = memw (r0 + #0) ; r5 = memw (r0 + #0)
    1b08:	00 c0 00 7f 	7f00c000     nop
    1b0c:	00 c0 00 7f 	7f00c000     nop
    1b10:	00 c0 00 7f 	7f00c000     nop
    1b14:	00 c0 00 7f 	7f00c000     nop
    1b18:	00 c0 00 7f 	7f00c000     nop
    1b1c:	00 c0 00 7f 	7f00c000     nop
    1b20:	00 c0 20 72 	7220c000     r0.h = #0
    1b24:	00 c0 20 71 	7120c000     r0.l = #0
    1b28:	40 c0 00 75 	7500c040     p0 = cmp.eq (r0, ##2)
    1b2c:	06 c0 00 5c 	5c00c006     if (p0) jump 1b38 <hexagon_pre_main>
    1b30:	60 c0 00 75 	7500c060     p0 = cmp.eq (r0, #3)
    1b34:	c0 c0 00 5c 	5c00c0c0     if (p0) jump 1cb4 <hexagon_start_main>

00001b38 <hexagon_pre_main>:
    1b38:	1e c0 00 78 	7800c01e     r30 = #0

00001b3c <.PreHeap>:
    1b3c:	00 c0 20 72 	7220c000     r0.h = #0
    1b40:	00 c0 20 71 	7120c000     r0.l = #0
    1b44:	00 c0 00 75 	7500c000     p0 = cmp.eq (r0, #0)
    1b48:	01 c0 21 72 	7221c001     r1.h = #1
    1b4c:	18 d0 21 71 	7121d018     r1.l = #4120
    1b50:	00 c0 81 44 	4481c000     if !p0 memw (r1 + #0) = r0
    1b54:	00 c0 81 45 	4581c000     if !p0 r0 = memw (r1 + #0)
    1b58:	01 c0 24 72 	7224c001     r4.h = #1
    1b5c:	18 d0 24 71 	7124d018     r4.l = #4120
    1b60:	04 c0 84 91 	9184c004     r4 = memw (r4 + #0)
    1b64:	00 c0 25 72 	7225c000     r5.h = #0
    1b68:	00 c0 25 71 	7125c000     r5.l = #0
    1b6c:	00 c0 05 75 	7505c000     p0 = cmp.eq (r5, #0)
    1b70:	00 c4 20 72 	7220c400     r0.h = #1024
    1b74:	00 c0 20 71 	7120c000     r0.l = #0
    1b78:	05 c0 00 74 	7400c005     if (p0) r5 = add (r0, #0)
    1b7c:	05 c5 04 f3 	f304c505     r5 = add (r4, r5)
    1b80:	e5 c1 05 b0 	b005c1e5     r5 = add (r5, #15)
    1b84:	05 fe 25 76 	7625fe05     r5 = and (r5, #-16)
    1b88:	01 c0 21 72 	7221c001     r1.h = #1
    1b8c:	1c d0 21 71 	7121d01c     r1.l = #4124
    1b90:	00 c5 81 a1 	a181c500     memw (r1 + #0) = r5
    1b94:	05 c0 81 91 	9181c005     r5 = memw (r1 + #0)
    1b98:	00 c0 27 72 	7227c000     r7.h = #0
    1b9c:	00 c0 27 71 	7127c000     r7.l = #0
    1ba0:	00 c0 07 75 	7507c000     p0 = cmp.eq (r7, #0)
    1ba4:	10 c0 20 72 	7220c010     r0.h = #16
    1ba8:	00 c0 20 71 	7120c000     r0.l = #0
    1bac:	07 c0 00 74 	7400c007     if (p0) r7 = add (r0, #0)
    1bb0:	06 c7 05 f3 	f305c706     r6 = add (r5, r7)
    1bb4:	06 fe 26 76 	7626fe06     r6 = and (r6, #-16)
    1bb8:	20 d0 20 71 	7120d020     r0.l = #4128
    1bbc:	01 c0 20 72 	7220c001     r0.h = #1
    1bc0:	00 c0 80 91 	9180c000     r0 = memw (r0 + #0)
    1bc4:	00 c0 00 75 	7500c000     p0 = cmp.eq (r0, #0)
    1bc8:	18 c0 20 5c 	5c20c018     if !p0 jump 1bf8 <.SkipUpdate>
    1bcc:	01 c0 21 72 	7221c001     r1.h = #1
    1bd0:	20 d0 21 71 	7121d020     r1.l = #4128
    1bd4:	00 c6 81 a1 	a181c600     memw (r1 + #0) = r6
    1bd8:	06 c0 81 91 	9181c006     r6 = memw (r1 + #0)
    1bdc:	00 c0 20 72 	7220c000     r0.h = #0
    1be0:	00 c0 20 71 	7120c000     r0.l = #0
    1be4:	00 c0 00 75 	7500c000     p0 = cmp.eq (r0, #0)
    1be8:	01 c0 21 72 	7221c001     r1.h = #1
    1bec:	20 d0 21 71 	7121d020     r1.l = #4128
    1bf0:	00 c0 81 44 	4481c000     if !p0 memw (r1 + #0) = r0
    1bf4:	00 c0 81 45 	4581c000     if !p0 r0 = memw (r1 + #0)

00001bf8 <.SkipUpdate>:
    1bf8:	01 c0 26 72 	7226c001     r6.h = #1
    1bfc:	20 d0 26 71 	7126d020     r6.l = #4128
    1c00:	06 c0 86 91 	9186c006     r6 = memw (r6 + #0)
    1c04:	07 c6 27 f3 	f327c607     r7 = sub (r6, r7)
    1c08:	e7 c1 07 b0 	b007c1e7     r7 = add (r7, #15)
    1c0c:	07 fe 27 76 	7627fe07     r7 = and (r7, #-16)
    1c10:	01 c0 21 72 	7221c001     r1.h = #1
    1c14:	24 d0 21 71 	7121d024     r1.l = #4132
    1c18:	00 c7 81 a1 	a181c700     memw (r1 + #0) = r7
    1c1c:	07 c0 81 91 	9181c007     r7 = memw (r1 + #0)

00001c20 <.PreStack>:
    1c20:	00 c0 21 72 	7221c000     r1.h = #0
    1c24:	00 c0 21 71 	7121c000     r1.l = #0
    1c28:	0a e1 01 11 	1101e10a     p0 = cmp.gtu (r1, #1) ; if (p0.new) jump:t 1c3c <.PreSDA>
    1c2c:	01 c0 20 72 	7220c001     r0.h = #1
    1c30:	20 d0 20 71 	7120d020     r0.l = #4128
    1c34:	00 c0 80 91 	9180c000     r0 = memw (r0 + #0)
    1c38:	1d fe 20 76 	7620fe1d     r29 = and (r0, #-16)

00001c3c <.PreSDA>:
    1c3c:	03 c0 20 72 	7220c003     r0.h = #3
    1c40:	00 c0 e0 71 	71e0c000     r0.l = #49152
    1c44:	0b c0 20 62 	6220c00b     gp = r0
    1c48:	00 c0 3c 72 	723cc000     r28.h = #0
    1c4c:	c0 d1 7c 71 	717cd1c0     r28.l = #20928
    1c50:	01 c0 20 72 	7220c001     r0.h = #1
    1c54:	2c d0 20 71 	7120d02c     r0.l = #4140
    1c58:	01 c0 02 78 	7802c001     r1 = #1024
    1c5c:	00 c0 bc 50 	50bcc000     callr r28

00001c60 <.PreBSS>:
    1c60:	00 c0 20 72 	7220c000     r0.h = #0
    1c64:	00 c0 20 71 	7120c000     r0.l = #0
    1c68:	26 c1 80 10 	1080c126     p0 = cmp.gt (r0, #1) ; if (p0.new) jump:nt 1cb4 <hexagon_start_main>
    1c6c:	01 c0 20 72 	7220c001     r0.h = #1
    1c70:	00 db 20 71 	7120db00     r0.l = #6912
    1c74:	03 c0 22 72 	7222c003     r2.h = #3
    1c78:	00 fe a2 71 	71a2fe00     r2.l = #48640
    1c7c:	00 c0 3c 72 	723cc000     r28.h = #0
    1c80:	40 e5 7c 71 	717ce540     r28.l = #25920
    1c84:	01 40 00 78 	78004001     { r1 = #0
    1c88:	00 40 bc 50 	50bc4000       callr r28
    1c8c:	02 c2 20 f3 	f320c202       r2 = sub (r2, r0) }
    1c90:	03 c0 20 72 	7220c003     r0.h = #3
    1c94:	80 c3 e0 71 	71e0c380     r0.l = #50048
    1c98:	03 c0 22 72 	7222c003     r2.h = #3
    1c9c:	80 c3 e2 71 	71e2c380     r2.l = #50048
    1ca0:	00 c0 3c 72 	723cc000     r28.h = #0
    1ca4:	40 e5 7c 71 	717ce540     r28.l = #25920
    1ca8:	01 40 00 78 	78004001     { r1 = #0
    1cac:	00 40 bc 50 	50bc4000       callr r28
    1cb0:	02 c2 20 f3 	f320c202       r2 = sub (r2, r0) }

00001cb4 <hexagon_start_main>:
    1cb4:	00 c0 22 72 	7222c000     r2.h = #0
    1cb8:	00 c0 22 71 	7122c000     r2.l = #0
    1cbc:	01 c0 23 72 	7223c001     r3.h = #1
    1cc0:	30 d4 23 71 	7123d430     r3.l = #5168
    1cc4:	20 c0 42 75 	7542c020     p0 = cmp.gt (r2, #1)
    1cc8:	00 40 00 7e 	7e004000     { if (p0) r0 = #0
    1ccc:	01 40 00 7e 	7e004001       if (p0) r1 = #0
    1cd0:	00 c0 c3 45 	45c3c000       if !p0 r1:0 = memd (r3 + #0) }
    1cd4:	00 c0 22 72 	7222c000     r2.h = #0
    1cd8:	40 fd 22 71 	7122fd40     r2.l = #15680
    1cdc:	00 c0 23 72 	7223c000     r3.h = #0
    1ce0:	60 fa e3 71 	71e3fa60     r3.l = #64096

00001ce4 <.PreRegs>:
    1ce4:	be fa a4 72 	72a4fabe     r4.h = #47806
    1ce8:	ef fe a4 71 	71a4feef     r4.l = #48879
    1cec:	05 c0 64 70 	7064c005     r5 = r4
    1cf0:	06 44 05 f5 	f5054406     { r7:6 = combine (r5, r4)
    1cf4:	08 44 05 f5 	f5054408       r9:8 = combine (r5, r4)
    1cf8:	0a 44 05 f5 	f505440a       r11:10 = combine (r5, r4)
    1cfc:	0c c4 05 f5 	f505c40c       r13:12 = combine (r5, r4) }
    1d00:	0e 44 05 f5 	f505440e     { r15:14 = combine (r5, r4)
    1d04:	10 44 05 f5 	f5054410       r17:16 = combine (r5, r4)
    1d08:	12 44 05 f5 	f5054412       r19:18 = combine (r5, r4)
    1d0c:	14 c4 05 f5 	f505c414       r21:20 = combine (r5, r4) }
    1d10:	16 44 05 f5 	f5054416     { r23:22 = combine (r5, r4)
    1d14:	18 44 05 f5 	f5054418       r25:24 = combine (r5, r4)
    1d18:	1a c4 05 f5 	f505c41a       r27:26 = combine (r5, r4) }

00001d1c <.PreStart>:
    1d1c:	00 c0 3c 72 	723cc000     r28.h = #0
    1d20:	70 e6 7c 71 	717ce670     r28.l = #26224
    1d24:	00 c0 bc 50 	50bcc000     callr r28

00001d28 <.PrePost>:
    1d28:	00 c0 20 72 	7220c000     r0.h = #0
    1d2c:	00 c0 20 71 	7120c000     r0.l = #0
    1d30:	00 c0 00 75 	7500c000     p0 = cmp.eq (r0, #0)
    1d34:	00 c0 20 51 	5120c000     if !p0 callr r0
    1d38:	e0 c7 00 78 	7800c7e0     r0 = #63
    1d3c:	00 c0 60 64 	6460c000     stop (r0)

00001d40 <UPTE_START>:
    1d40:	07 00 17 00 	00170007     r7 = memw (r1 + #0) ; r7 = memw (r0 + #0)
    1d44:	27 00 37 00 	00370027     r7 = memw (r3 + #0) ; r7 = memw (r2 + #0)
    1d48:	47 00 57 00 	00570047     r7 = memw (r5 + #0) ; r7 = memw (r4 + #0)
    1d4c:	67 00 77 00 	00770067     r7 = memw (r7 + #0) ; r7 = memw (r6 + #0)
    1d50:	87 00 97 00 	00970087     r7 = memw (r17 + #0) ; r7 = memw (r16 + #0)
    1d54:	a7 00 b7 00 	00b700a7     r7 = memw (r19 + #0) ; r7 = memw (r18 + #0)
    1d58:	c7 00 d7 00 	00d700c7     r7 = memw (r21 + #0) ; r7 = memw (r20 + #0)
    1d5c:	e7 00 f7 00 	00f700e7     r7 = memw (r23 + #0) ; r7 = memw (r22 + #0)
    1d60:	07 01 17 01 	01170107     r7 = memw (r1 + #4) ; r7 = memw (r0 + #4)
    1d64:	27 01 37 01 	01370127     r7 = memw (r3 + #4) ; r7 = memw (r2 + #4)
    1d68:	47 01 57 01 	01570147     r7 = memw (r5 + #4) ; r7 = memw (r4 + #4)
    1d6c:	67 01 77 01 	01770167     r7 = memw (r7 + #4) ; r7 = memw (r6 + #4)
    1d70:	87 01 97 01 	01970187     r7 = memw (r17 + #4) ; r7 = memw (r16 + #4)
    1d74:	a7 01 b7 01 	01b701a7     r7 = memw (r19 + #4) ; r7 = memw (r18 + #4)
    1d78:	c7 01 d7 01 	01d701c7     r7 = memw (r21 + #4) ; r7 = memw (r20 + #4)
    1d7c:	e7 01 f7 01 	01f701e7     r7 = memw (r23 + #4) ; r7 = memw (r22 + #4)
    1d80:	07 02 17 02 	02170207     r7 = memw (r1 + #8) ; r7 = memw (r0 + #8)
    1d84:	27 02 37 02 	02370227     r7 = memw (r3 + #8) ; r7 = memw (r2 + #8)
    1d88:	47 02 57 02 	02570247     r7 = memw (r5 + #8) ; r7 = memw (r4 + #8)
    1d8c:	67 02 77 02 	02770267     r7 = memw (r7 + #8) ; r7 = memw (r6 + #8)
    1d90:	87 02 97 02 	02970287     r7 = memw (r17 + #8) ; r7 = memw (r16 + #8)
    1d94:	a7 02 b7 02 	02b702a7     r7 = memw (r19 + #8) ; r7 = memw (r18 + #8)
    1d98:	c7 02 d7 02 	02d702c7     r7 = memw (r21 + #8) ; r7 = memw (r20 + #8)
    1d9c:	e7 02 f7 02 	02f702e7     r7 = memw (r23 + #8) ; r7 = memw (r22 + #8)
    1da0:	07 03 17 03 	03170307     r7 = memw (r1 + #12) ; r7 = memw (r0 + #12)
    1da4:	27 03 37 03 	03370327     r7 = memw (r3 + #12) ; r7 = memw (r2 + #12)
    1da8:	47 03 57 03 	03570347     r7 = memw (r5 + #12) ; r7 = memw (r4 + #12)
    1dac:	67 03 77 03 	03770367     r7 = memw (r7 + #12) ; r7 = memw (r6 + #12)
    1db0:	87 03 97 03 	03970387     r7 = memw (r17 + #12) ; r7 = memw (r16 + #12)
    1db4:	a7 03 b7 03 	03b703a7     r7 = memw (r19 + #12) ; r7 = memw (r18 + #12)
    1db8:	c7 03 d7 03 	03d703c7     r7 = memw (r21 + #12) ; r7 = memw (r20 + #12)
    1dbc:	e7 03 f7 03 	03f703e7     r7 = memw (r23 + #12) ; r7 = memw (r22 + #12)
    1dc0:	07 04 17 04 	04170407     r7 = memw (r1 + #16) ; r7 = memw (r0 + #16)
    1dc4:	27 04 37 04 	04370427     r7 = memw (r3 + #16) ; r7 = memw (r2 + #16)
    1dc8:	47 04 57 04 	04570447     r7 = memw (r5 + #16) ; r7 = memw (r4 + #16)
    1dcc:	67 04 77 04 	04770467     r7 = memw (r7 + #16) ; r7 = memw (r6 + #16)
    1dd0:	87 04 97 04 	04970487     r7 = memw (r17 + #16) ; r7 = memw (r16 + #16)
    1dd4:	a7 04 b7 04 	04b704a7     r7 = memw (r19 + #16) ; r7 = memw (r18 + #16)
    1dd8:	c7 04 d7 04 	04d704c7     r7 = memw (r21 + #16) ; r7 = memw (r20 + #16)
    1ddc:	e7 04 f7 04 	04f704e7     r7 = memw (r23 + #16) ; r7 = memw (r22 + #16)
    1de0:	07 05 17 05 	05170507     r7 = memw (r1 + #20) ; r7 = memw (r0 + #20)
    1de4:	27 05 37 05 	05370527     r7 = memw (r3 + #20) ; r7 = memw (r2 + #20)
    1de8:	47 05 57 05 	05570547     r7 = memw (r5 + #20) ; r7 = memw (r4 + #20)
    1dec:	67 05 77 05 	05770567     r7 = memw (r7 + #20) ; r7 = memw (r6 + #20)
    1df0:	87 05 97 05 	05970587     r7 = memw (r17 + #20) ; r7 = memw (r16 + #20)
    1df4:	a7 05 b7 05 	05b705a7     r7 = memw (r19 + #20) ; r7 = memw (r18 + #20)
    1df8:	c7 05 d7 05 	05d705c7     r7 = memw (r21 + #20) ; r7 = memw (r20 + #20)
    1dfc:	e7 05 f7 05 	05f705e7     r7 = memw (r23 + #20) ; r7 = memw (r22 + #20)
    1e00:	07 06 17 06 	06170607     r7 = memw (r1 + #24) ; r7 = memw (r0 + #24)
    1e04:	27 06 37 06 	06370627     r7 = memw (r3 + #24) ; r7 = memw (r2 + #24)
    1e08:	47 06 57 06 	06570647     r7 = memw (r5 + #24) ; r7 = memw (r4 + #24)
    1e0c:	67 06 77 06 	06770667     r7 = memw (r7 + #24) ; r7 = memw (r6 + #24)
    1e10:	87 06 97 06 	06970687     r7 = memw (r17 + #24) ; r7 = memw (r16 + #24)
    1e14:	a7 06 b7 06 	06b706a7     r7 = memw (r19 + #24) ; r7 = memw (r18 + #24)
    1e18:	c7 06 d7 06 	06d706c7     r7 = memw (r21 + #24) ; r7 = memw (r20 + #24)
    1e1c:	e7 06 f7 06 	06f706e7     r7 = memw (r23 + #24) ; r7 = memw (r22 + #24)
    1e20:	07 07 17 07 	07170707     r7 = memw (r1 + #28) ; r7 = memw (r0 + #28)
    1e24:	27 07 37 07 	07370727     r7 = memw (r3 + #28) ; r7 = memw (r2 + #28)
    1e28:	47 07 57 07 	07570747     r7 = memw (r5 + #28) ; r7 = memw (r4 + #28)
    1e2c:	67 07 77 07 	07770767     r7 = memw (r7 + #28) ; r7 = memw (r6 + #28)
    1e30:	87 07 97 07 	07970787     r7 = memw (r17 + #28) ; r7 = memw (r16 + #28)
    1e34:	a7 07 b7 07 	07b707a7     r7 = memw (r19 + #28) ; r7 = memw (r18 + #28)
    1e38:	c7 07 d7 07 	07d707c7     r7 = memw (r21 + #28) ; r7 = memw (r20 + #28)
    1e3c:	e7 07 f7 07 	07f707e7     r7 = memw (r23 + #28) ; r7 = memw (r22 + #28)
    1e40:	07 08 17 08 	08170807     r7 = memw (r1 + #32) ; r7 = memw (r0 + #32)
    1e44:	27 08 37 08 	08370827     r7 = memw (r3 + #32) ; r7 = memw (r2 + #32)
    1e48:	47 08 57 08 	08570847     r7 = memw (r5 + #32) ; r7 = memw (r4 + #32)
    1e4c:	67 08 77 08 	08770867     r7 = memw (r7 + #32) ; r7 = memw (r6 + #32)
    1e50:	87 08 97 08 	08970887     r7 = memw (r17 + #32) ; r7 = memw (r16 + #32)
    1e54:	a7 08 b7 08 	08b708a7     r7 = memw (r19 + #32) ; r7 = memw (r18 + #32)
    1e58:	c7 08 d7 08 	08d708c7     r7 = memw (r21 + #32) ; r7 = memw (r20 + #32)
    1e5c:	e7 08 f7 08 	08f708e7     r7 = memw (r23 + #32) ; r7 = memw (r22 + #32)
    1e60:	07 09 17 09 	09170907     r7 = memw (r1 + #36) ; r7 = memw (r0 + #36)
    1e64:	27 09 37 09 	09370927     r7 = memw (r3 + #36) ; r7 = memw (r2 + #36)
    1e68:	47 09 57 09 	09570947     r7 = memw (r5 + #36) ; r7 = memw (r4 + #36)
    1e6c:	67 09 77 09 	09770967     r7 = memw (r7 + #36) ; r7 = memw (r6 + #36)
    1e70:	87 09 97 09 	09970987     r7 = memw (r17 + #36) ; r7 = memw (r16 + #36)
    1e74:	a7 09 b7 09 	09b709a7     r7 = memw (r19 + #36) ; r7 = memw (r18 + #36)
    1e78:	c7 09 d7 09 	09d709c7     r7 = memw (r21 + #36) ; r7 = memw (r20 + #36)
    1e7c:	e7 09 f7 09 	09f709e7     r7 = memw (r23 + #36) ; r7 = memw (r22 + #36)
    1e80:	07 0a 17 0a 	0a170a07     r7 = memw (r1 + #40) ; r7 = memw (r0 + #40)
    1e84:	27 0a 37 0a 	0a370a27     r7 = memw (r3 + #40) ; r7 = memw (r2 + #40)
    1e88:	47 0a 57 0a 	0a570a47     r7 = memw (r5 + #40) ; r7 = memw (r4 + #40)
    1e8c:	67 0a 77 0a 	0a770a67     r7 = memw (r7 + #40) ; r7 = memw (r6 + #40)
    1e90:	87 0a 97 0a 	0a970a87     r7 = memw (r17 + #40) ; r7 = memw (r16 + #40)
    1e94:	a7 0a b7 0a 	0ab70aa7     r7 = memw (r19 + #40) ; r7 = memw (r18 + #40)
    1e98:	c7 0a d7 0a 	0ad70ac7     r7 = memw (r21 + #40) ; r7 = memw (r20 + #40)
    1e9c:	e7 0a f7 0a 	0af70ae7     r7 = memw (r23 + #40) ; r7 = memw (r22 + #40)
    1ea0:	07 0b 17 0b 	0b170b07     r7 = memw (r1 + #44) ; r7 = memw (r0 + #44)
    1ea4:	27 0b 37 0b 	0b370b27     r7 = memw (r3 + #44) ; r7 = memw (r2 + #44)
    1ea8:	47 0b 57 0b 	0b570b47     r7 = memw (r5 + #44) ; r7 = memw (r4 + #44)
    1eac:	67 0b 77 0b 	0b770b67     r7 = memw (r7 + #44) ; r7 = memw (r6 + #44)
    1eb0:	87 0b 97 0b 	0b970b87     r7 = memw (r17 + #44) ; r7 = memw (r16 + #44)
    1eb4:	a7 0b b7 0b 	0bb70ba7     r7 = memw (r19 + #44) ; r7 = memw (r18 + #44)
    1eb8:	c7 0b d7 0b 	0bd70bc7     r7 = memw (r21 + #44) ; r7 = memw (r20 + #44)
    1ebc:	e7 0b f7 0b 	0bf70be7     r7 = memw (r23 + #44) ; r7 = memw (r22 + #44)
    1ec0:	07 0c 17 0c 	0c170c07     r7 = memw (r1 + #48) ; r7 = memw (r0 + #48)
    1ec4:	27 0c 37 0c 	0c370c27     r7 = memw (r3 + #48) ; r7 = memw (r2 + #48)
    1ec8:	47 0c 57 0c 	0c570c47     r7 = memw (r5 + #48) ; r7 = memw (r4 + #48)
    1ecc:	67 0c 77 0c 	0c770c67     r7 = memw (r7 + #48) ; r7 = memw (r6 + #48)
    1ed0:	87 0c 97 0c 	0c970c87     r7 = memw (r17 + #48) ; r7 = memw (r16 + #48)
    1ed4:	a7 0c b7 0c 	0cb70ca7     r7 = memw (r19 + #48) ; r7 = memw (r18 + #48)
    1ed8:	c7 0c d7 0c 	0cd70cc7     r7 = memw (r21 + #48) ; r7 = memw (r20 + #48)
    1edc:	e7 0c f7 0c 	0cf70ce7     r7 = memw (r23 + #48) ; r7 = memw (r22 + #48)
    1ee0:	07 0d 17 0d 	0d170d07     r7 = memw (r1 + #52) ; r7 = memw (r0 + #52)
    1ee4:	27 0d 37 0d 	0d370d27     r7 = memw (r3 + #52) ; r7 = memw (r2 + #52)
    1ee8:	47 0d 57 0d 	0d570d47     r7 = memw (r5 + #52) ; r7 = memw (r4 + #52)
    1eec:	67 0d 77 0d 	0d770d67     r7 = memw (r7 + #52) ; r7 = memw (r6 + #52)
    1ef0:	87 0d 97 0d 	0d970d87     r7 = memw (r17 + #52) ; r7 = memw (r16 + #52)
    1ef4:	a7 0d b7 0d 	0db70da7     r7 = memw (r19 + #52) ; r7 = memw (r18 + #52)
    1ef8:	c7 0d d7 0d 	0dd70dc7     r7 = memw (r21 + #52) ; r7 = memw (r20 + #52)
    1efc:	e7 0d f7 0d 	0df70de7     r7 = memw (r23 + #52) ; r7 = memw (r22 + #52)
    1f00:	07 0e 17 0e 	0e170e07     r7 = memw (r1 + #56) ; r7 = memw (r0 + #56)
    1f04:	27 0e 37 0e 	0e370e27     r7 = memw (r3 + #56) ; r7 = memw (r2 + #56)
    1f08:	47 0e 57 0e 	0e570e47     r7 = memw (r5 + #56) ; r7 = memw (r4 + #56)
    1f0c:	67 0e 77 0e 	0e770e67     r7 = memw (r7 + #56) ; r7 = memw (r6 + #56)
    1f10:	87 0e 97 0e 	0e970e87     r7 = memw (r17 + #56) ; r7 = memw (r16 + #56)
    1f14:	a7 0e b7 0e 	0eb70ea7     r7 = memw (r19 + #56) ; r7 = memw (r18 + #56)
    1f18:	c7 0e d7 0e 	0ed70ec7     r7 = memw (r21 + #56) ; r7 = memw (r20 + #56)
    1f1c:	e7 0e f7 0e 	0ef70ee7     r7 = memw (r23 + #56) ; r7 = memw (r22 + #56)
    1f20:	07 0f 17 0f 	0f170f07     r7 = memw (r1 + #60) ; r7 = memw (r0 + #60)
    1f24:	27 0f 37 0f 	0f370f27     r7 = memw (r3 + #60) ; r7 = memw (r2 + #60)
    1f28:	47 0f 57 0f 	0f570f47     r7 = memw (r5 + #60) ; r7 = memw (r4 + #60)
    1f2c:	67 0f 77 0f 	0f770f67     r7 = memw (r7 + #60) ; r7 = memw (r6 + #60)
    1f30:	87 0f 97 0f 	0f970f87     r7 = memw (r17 + #60) ; r7 = memw (r16 + #60)
    1f34:	a7 0f b7 0f 	0fb70fa7     r7 = memw (r19 + #60) ; r7 = memw (r18 + #60)
    1f38:	c7 0f d7 0f 	0fd70fc7     r7 = memw (r21 + #60) ; r7 = memw (r20 + #60)
    1f3c:	e7 0f f7 0f 	0ff70fe7     r7 = memw (r23 + #60) ; r7 = memw (r22 + #60)
    1f40:	07 10 17 10 	10171007     r7 = memub (r1 + #0) ; r7 = memub (r0 + #0)
    1f44:	27 10 37 10 	10371027     r7 = memub (r3 + #0) ; r7 = memub (r2 + #0)
    1f48:	47 10 57 10 	10571047     r7 = memub (r5 + #0) ; r7 = memub (r4 + #0)
    1f4c:	67 10 77 10 	10771067     r7 = memub (r7 + #0) ; r7 = memub (r6 + #0)
    1f50:	87 10 97 10 	10971087     r7 = memub (r17 + #0) ; r7 = memub (r16 + #0)
    1f54:	a7 10 b7 10 	10b710a7     r7 = memub (r19 + #0) ; r7 = memub (r18 + #0)
    1f58:	c7 10 d7 10 	10d710c7     r7 = memub (r21 + #0) ; r7 = memub (r20 + #0)
    1f5c:	e7 10 f7 10 	10f710e7     r7 = memub (r23 + #0) ; r7 = memub (r22 + #0)
    1f60:	07 11 17 11 	11171107     r7 = memub (r1 + #1) ; r7 = memub (r0 + #1)
    1f64:	27 11 37 11 	11371127     r7 = memub (r3 + #1) ; r7 = memub (r2 + #1)
    1f68:	47 11 57 11 	11571147     r7 = memub (r5 + #1) ; r7 = memub (r4 + #1)
    1f6c:	67 11 77 11 	11771167     r7 = memub (r7 + #1) ; r7 = memub (r6 + #1)
    1f70:	87 11 97 11 	11971187     r7 = memub (r17 + #1) ; r7 = memub (r16 + #1)
    1f74:	a7 11 b7 11 	11b711a7     r7 = memub (r19 + #1) ; r7 = memub (r18 + #1)
    1f78:	c7 11 d7 11 	11d711c7     r7 = memub (r21 + #1) ; r7 = memub (r20 + #1)
    1f7c:	e7 11 f7 11 	11f711e7     r7 = memub (r23 + #1) ; r7 = memub (r22 + #1)
    1f80:	07 12 17 12 	12171207     r7 = memub (r1 + #2) ; r7 = memub (r0 + #2)
    1f84:	27 12 37 12 	12371227     r7 = memub (r3 + #2) ; r7 = memub (r2 + #2)
    1f88:	47 12 57 12 	12571247     r7 = memub (r5 + #2) ; r7 = memub (r4 + #2)
    1f8c:	67 12 77 12 	12771267     r7 = memub (r7 + #2) ; r7 = memub (r6 + #2)
    1f90:	87 12 97 12 	12971287     r7 = memub (r17 + #2) ; r7 = memub (r16 + #2)
    1f94:	a7 12 b7 12 	12b712a7     r7 = memub (r19 + #2) ; r7 = memub (r18 + #2)
    1f98:	c7 12 d7 12 	12d712c7     r7 = memub (r21 + #2) ; r7 = memub (r20 + #2)
    1f9c:	e7 12 f7 12 	12f712e7     r7 = memub (r23 + #2) ; r7 = memub (r22 + #2)
    1fa0:	07 13 17 13 	13171307     r7 = memub (r1 + #3) ; r7 = memub (r0 + #3)
    1fa4:	27 13 37 13 	13371327     r7 = memub (r3 + #3) ; r7 = memub (r2 + #3)
    1fa8:	47 13 57 13 	13571347     r7 = memub (r5 + #3) ; r7 = memub (r4 + #3)
    1fac:	67 13 77 13 	13771367     r7 = memub (r7 + #3) ; r7 = memub (r6 + #3)
    1fb0:	87 13 97 13 	13971387     r7 = memub (r17 + #3) ; r7 = memub (r16 + #3)
    1fb4:	a7 13 b7 13 	13b713a7     r7 = memub (r19 + #3) ; r7 = memub (r18 + #3)
    1fb8:	c7 13 d7 13 	13d713c7     r7 = memub (r21 + #3) ; r7 = memub (r20 + #3)
    1fbc:	e7 13 f7 13 	13f713e7     r7 = memub (r23 + #3) ; r7 = memub (r22 + #3)
    1fc0:	07 14 17 14 	14171407     r7 = memub (r1 + #4) ; r7 = memub (r0 + #4)
    1fc4:	27 14 37 14 	14371427     r7 = memub (r3 + #4) ; r7 = memub (r2 + #4)
    1fc8:	47 14 57 14 	14571447     r7 = memub (r5 + #4) ; r7 = memub (r4 + #4)
    1fcc:	67 14 77 14 	14771467     r7 = memub (r7 + #4) ; r7 = memub (r6 + #4)
    1fd0:	87 14 97 14 	14971487     r7 = memub (r17 + #4) ; r7 = memub (r16 + #4)
    1fd4:	a7 14 b7 14 	14b714a7     r7 = memub (r19 + #4) ; r7 = memub (r18 + #4)
    1fd8:	c7 14 d7 14 	14d714c7     r7 = memub (r21 + #4) ; r7 = memub (r20 + #4)
    1fdc:	e7 14 f7 14 	14f714e7     r7 = memub (r23 + #4) ; r7 = memub (r22 + #4)
    1fe0:	07 15 17 15 	15171507     r7 = memub (r1 + #5) ; r7 = memub (r0 + #5)
    1fe4:	27 15 37 15 	15371527     r7 = memub (r3 + #5) ; r7 = memub (r2 + #5)
    1fe8:	47 15 57 15 	15571547     r7 = memub (r5 + #5) ; r7 = memub (r4 + #5)
    1fec:	67 15 77 15 	15771567     r7 = memub (r7 + #5) ; r7 = memub (r6 + #5)
    1ff0:	87 15 97 15 	15971587     r7 = memub (r17 + #5) ; r7 = memub (r16 + #5)
    1ff4:	a7 15 b7 15 	15b715a7     r7 = memub (r19 + #5) ; r7 = memub (r18 + #5)
    1ff8:	c7 15 d7 15 	15d715c7     r7 = memub (r21 + #5) ; r7 = memub (r20 + #5)
    1ffc:	e7 15 f7 15 	15f715e7     r7 = memub (r23 + #5) ; r7 = memub (r22 + #5)
    2000:	07 16 17 16 	16171607     r7 = memub (r1 + #6) ; r7 = memub (r0 + #6)
    2004:	27 16 37 16 	16371627     r7 = memub (r3 + #6) ; r7 = memub (r2 + #6)
    2008:	47 16 57 16 	16571647     r7 = memub (r5 + #6) ; r7 = memub (r4 + #6)
    200c:	67 16 77 16 	16771667     r7 = memub (r7 + #6) ; r7 = memub (r6 + #6)
    2010:	87 16 97 16 	16971687     r7 = memub (r17 + #6) ; r7 = memub (r16 + #6)
    2014:	a7 16 b7 16 	16b716a7     r7 = memub (r19 + #6) ; r7 = memub (r18 + #6)
    2018:	c7 16 d7 16 	16d716c7     r7 = memub (r21 + #6) ; r7 = memub (r20 + #6)
    201c:	e7 16 f7 16 	16f716e7     r7 = memub (r23 + #6) ; r7 = memub (r22 + #6)
    2020:	07 17 17 17 	17171707     r7 = memub (r1 + #7) ; r7 = memub (r0 + #7)
    2024:	27 17 37 17 	17371727     r7 = memub (r3 + #7) ; r7 = memub (r2 + #7)
    2028:	47 17 57 17 	17571747     r7 = memub (r5 + #7) ; r7 = memub (r4 + #7)
    202c:	67 17 77 17 	17771767     r7 = memub (r7 + #7) ; r7 = memub (r6 + #7)
    2030:	87 17 97 17 	17971787     r7 = memub (r17 + #7) ; r7 = memub (r16 + #7)
    2034:	a7 17 b7 17 	17b717a7     r7 = memub (r19 + #7) ; r7 = memub (r18 + #7)
    2038:	c7 17 d7 17 	17d717c7     r7 = memub (r21 + #7) ; r7 = memub (r20 + #7)
    203c:	e7 17 f7 17 	17f717e7     r7 = memub (r23 + #7) ; r7 = memub (r22 + #7)
    2040:	07 18 17 18 	18171807     r7 = memub (r1 + #8) ; r7 = memub (r0 + #8)
    2044:	27 18 37 18 	18371827     r7 = memub (r3 + #8) ; r7 = memub (r2 + #8)
    2048:	47 18 57 18 	18571847     r7 = memub (r5 + #8) ; r7 = memub (r4 + #8)
    204c:	67 18 77 18 	18771867     r7 = memub (r7 + #8) ; r7 = memub (r6 + #8)
    2050:	87 18 97 18 	18971887     r7 = memub (r17 + #8) ; r7 = memub (r16 + #8)
    2054:	a7 18 b7 18 	18b718a7     r7 = memub (r19 + #8) ; r7 = memub (r18 + #8)
    2058:	c7 18 d7 18 	18d718c7     r7 = memub (r21 + #8) ; r7 = memub (r20 + #8)
    205c:	e7 18 f7 18 	18f718e7     r7 = memub (r23 + #8) ; r7 = memub (r22 + #8)
    2060:	07 19 17 19 	19171907     r7 = memub (r1 + #9) ; r7 = memub (r0 + #9)
    2064:	27 19 37 19 	19371927     r7 = memub (r3 + #9) ; r7 = memub (r2 + #9)
    2068:	47 19 57 19 	19571947     r7 = memub (r5 + #9) ; r7 = memub (r4 + #9)
    206c:	67 19 77 19 	19771967     r7 = memub (r7 + #9) ; r7 = memub (r6 + #9)
    2070:	87 19 97 19 	19971987     r7 = memub (r17 + #9) ; r7 = memub (r16 + #9)
    2074:	a7 19 b7 19 	19b719a7     r7 = memub (r19 + #9) ; r7 = memub (r18 + #9)
    2078:	c7 19 d7 19 	19d719c7     r7 = memub (r21 + #9) ; r7 = memub (r20 + #9)
    207c:	e7 19 f7 19 	19f719e7     r7 = memub (r23 + #9) ; r7 = memub (r22 + #9)
    2080:	07 1a 17 1a 	1a171a07     r7 = memub (r1 + #10) ; r7 = memub (r0 + #10)
    2084:	27 1a 37 1a 	1a371a27     r7 = memub (r3 + #10) ; r7 = memub (r2 + #10)
    2088:	47 1a 57 1a 	1a571a47     r7 = memub (r5 + #10) ; r7 = memub (r4 + #10)
    208c:	67 1a 77 1a 	1a771a67     r7 = memub (r7 + #10) ; r7 = memub (r6 + #10)
    2090:	87 1a 97 1a 	1a971a87     r7 = memub (r17 + #10) ; r7 = memub (r16 + #10)
    2094:	a7 1a b7 1a 	1ab71aa7     r7 = memub (r19 + #10) ; r7 = memub (r18 + #10)
    2098:	c7 1a d7 1a 	1ad71ac7     r7 = memub (r21 + #10) ; r7 = memub (r20 + #10)
    209c:	e7 1a f7 1a 	1af71ae7     r7 = memub (r23 + #10) ; r7 = memub (r22 + #10)
    20a0:	07 1b 17 1b 	1b171b07     r7 = memub (r1 + #11) ; r7 = memub (r0 + #11)
    20a4:	27 1b 37 1b 	1b371b27     r7 = memub (r3 + #11) ; r7 = memub (r2 + #11)
    20a8:	47 1b 57 1b 	1b571b47     r7 = memub (r5 + #11) ; r7 = memub (r4 + #11)
    20ac:	67 1b 77 1b 	1b771b67     r7 = memub (r7 + #11) ; r7 = memub (r6 + #11)
    20b0:	87 1b 97 1b 	1b971b87     r7 = memub (r17 + #11) ; r7 = memub (r16 + #11)
    20b4:	a7 1b b7 1b 	1bb71ba7     r7 = memub (r19 + #11) ; r7 = memub (r18 + #11)
    20b8:	c7 1b d7 1b 	1bd71bc7     r7 = memub (r21 + #11) ; r7 = memub (r20 + #11)
    20bc:	e7 1b f7 1b 	1bf71be7     r7 = memub (r23 + #11) ; r7 = memub (r22 + #11)
    20c0:	07 1c 17 1c 	1c171c07     r7 = memub (r1 + #12) ; r7 = memub (r0 + #12)
    20c4:	27 1c 37 1c 	1c371c27     r7 = memub (r3 + #12) ; r7 = memub (r2 + #12)
    20c8:	47 1c 57 1c 	1c571c47     r7 = memub (r5 + #12) ; r7 = memub (r4 + #12)
    20cc:	67 1c 77 1c 	1c771c67     r7 = memub (r7 + #12) ; r7 = memub (r6 + #12)
    20d0:	87 1c 97 1c 	1c971c87     r7 = memub (r17 + #12) ; r7 = memub (r16 + #12)
    20d4:	a7 1c b7 1c 	1cb71ca7     r7 = memub (r19 + #12) ; r7 = memub (r18 + #12)
    20d8:	c7 1c d7 1c 	1cd71cc7     r7 = memub (r21 + #12) ; r7 = memub (r20 + #12)
    20dc:	e7 1c f7 1c 	1cf71ce7     r7 = memub (r23 + #12) ; r7 = memub (r22 + #12)
    20e0:	07 1d 17 1d 	1d171d07     r7 = memub (r1 + #13) ; r7 = memub (r0 + #13)
    20e4:	27 1d 37 1d 	1d371d27     r7 = memub (r3 + #13) ; r7 = memub (r2 + #13)
    20e8:	47 1d 57 1d 	1d571d47     r7 = memub (r5 + #13) ; r7 = memub (r4 + #13)
    20ec:	67 1d 77 1d 	1d771d67     r7 = memub (r7 + #13) ; r7 = memub (r6 + #13)
    20f0:	87 1d 97 1d 	1d971d87     r7 = memub (r17 + #13) ; r7 = memub (r16 + #13)
    20f4:	a7 1d b7 1d 	1db71da7     r7 = memub (r19 + #13) ; r7 = memub (r18 + #13)
    20f8:	c7 1d d7 1d 	1dd71dc7     r7 = memub (r21 + #13) ; r7 = memub (r20 + #13)
    20fc:	e7 1d f7 1d 	1df71de7     r7 = memub (r23 + #13) ; r7 = memub (r22 + #13)
    2100:	07 1e 17 1e 	1e171e07     r7 = memub (r1 + #14) ; r7 = memub (r0 + #14)
    2104:	27 1e 37 1e 	1e371e27     r7 = memub (r3 + #14) ; r7 = memub (r2 + #14)
    2108:	47 1e 57 1e 	1e571e47     r7 = memub (r5 + #14) ; r7 = memub (r4 + #14)
    210c:	67 1e 77 1e 	1e771e67     r7 = memub (r7 + #14) ; r7 = memub (r6 + #14)
    2110:	87 1e 97 1e 	1e971e87     r7 = memub (r17 + #14) ; r7 = memub (r16 + #14)
    2114:	a7 1e b7 1e 	1eb71ea7     r7 = memub (r19 + #14) ; r7 = memub (r18 + #14)
    2118:	c7 1e d7 1e 	1ed71ec7     r7 = memub (r21 + #14) ; r7 = memub (r20 + #14)
    211c:	e7 1e f7 1e 	1ef71ee7     r7 = memub (r23 + #14) ; r7 = memub (r22 + #14)
    2120:	07 1f 17 1f 	1f171f07     r7 = memub (r1 + #15) ; r7 = memub (r0 + #15)
    2124:	27 1f 37 1f 	1f371f27     r7 = memub (r3 + #15) ; r7 = memub (r2 + #15)
    2128:	47 1f 57 1f 	1f571f47     r7 = memub (r5 + #15) ; r7 = memub (r4 + #15)
    212c:	67 1f 77 1f 	1f771f67     r7 = memub (r7 + #15) ; r7 = memub (r6 + #15)
    2130:	87 1f 97 1f 	1f971f87     r7 = memub (r17 + #15) ; r7 = memub (r16 + #15)
    2134:	a7 1f b7 1f 	1fb71fa7     r7 = memub (r19 + #15) ; r7 = memub (r18 + #15)
    2138:	c7 1f d7 1f 	1fd71fc7     r7 = memub (r21 + #15) ; r7 = memub (r20 + #15)
    213c:	e7 1f f7 1f 	1ff71fe7     r7 = memub (r23 + #15) ; r7 = memub (r22 + #15)
    2140:	07 20 17 20 	20172007     r7 = add (r7, #1) ; r7 = add (r7, #0)
    2144:	27 20 37 20 	20372027     r7 = add (r7, #3) ; r7 = add (r7, #2)
    2148:	47 20 57 20 	20572047     r7 = add (r7, #5) ; r7 = add (r7, #4)
    214c:	67 20 77 20 	20772067     r7 = add (r7, #7) ; r7 = add (r7, #6)
    2150:	87 20 97 20 	20972087     r7 = add (r7, #9) ; r7 = add (r7, #8)
    2154:	a7 20 b7 20 	20b720a7     r7 = add (r7, #11) ; r7 = add (r7, #10)
    2158:	c7 20 d7 20 	20d720c7     r7 = add (r7, #13) ; r7 = add (r7, #12)
    215c:	e7 20 f7 20 	20f720e7     r7 = add (r7, #15) ; r7 = add (r7, #14)
    2160:	07 21 17 21 	21172107     r7 = add (r7, #17) ; r7 = add (r7, #16)
    2164:	27 21 37 21 	21372127     r7 = add (r7, #19) ; r7 = add (r7, #18)
    2168:	47 21 57 21 	21572147     r7 = add (r7, #21) ; r7 = add (r7, #20)
    216c:	67 21 77 21 	21772167     r7 = add (r7, #23) ; r7 = add (r7, #22)
    2170:	87 21 97 21 	21972187     r7 = add (r7, #25) ; r7 = add (r7, #24)
    2174:	a7 21 b7 21 	21b721a7     r7 = add (r7, #27) ; r7 = add (r7, #26)
    2178:	c7 21 d7 21 	21d721c7     r7 = add (r7, #29) ; r7 = add (r7, #28)
    217c:	e7 21 f7 21 	21f721e7     r7 = add (r7, #31) ; r7 = add (r7, #30)
    2180:	07 22 17 22 	22172207     r7 = add (r7, #33) ; r7 = add (r7, #32)
    2184:	27 22 37 22 	22372227     r7 = add (r7, #35) ; r7 = add (r7, #34)
    2188:	47 22 57 22 	22572247     r7 = add (r7, #37) ; r7 = add (r7, #36)
    218c:	67 22 77 22 	22772267     r7 = add (r7, #39) ; r7 = add (r7, #38)
    2190:	87 22 97 22 	22972287     r7 = add (r7, #41) ; r7 = add (r7, #40)
    2194:	a7 22 b7 22 	22b722a7     r7 = add (r7, #43) ; r7 = add (r7, #42)
    2198:	c7 22 d7 22 	22d722c7     r7 = add (r7, #45) ; r7 = add (r7, #44)
    219c:	e7 22 f7 22 	22f722e7     r7 = add (r7, #47) ; r7 = add (r7, #46)
    21a0:	07 23 17 23 	23172307     r7 = add (r7, #49) ; r7 = add (r7, #48)
    21a4:	27 23 37 23 	23372327     r7 = add (r7, #51) ; r7 = add (r7, #50)
    21a8:	47 23 57 23 	23572347     r7 = add (r7, #53) ; r7 = add (r7, #52)
    21ac:	67 23 77 23 	23772367     r7 = add (r7, #55) ; r7 = add (r7, #54)
    21b0:	87 23 97 23 	23972387     r7 = add (r7, #57) ; r7 = add (r7, #56)
    21b4:	a7 23 b7 23 	23b723a7     r7 = add (r7, #59) ; r7 = add (r7, #58)
    21b8:	c7 23 d7 23 	23d723c7     r7 = add (r7, #61) ; r7 = add (r7, #60)
    21bc:	e7 23 f7 23 	23f723e7     r7 = add (r7, #63) ; r7 = add (r7, #62)
    21c0:	07 24 17 24 	24172407     r7 = add (r7, #-63) ; r7 = add (r7, #-64)
    21c4:	27 24 37 24 	24372427     r7 = add (r7, #-61) ; r7 = add (r7, #-62)
    21c8:	47 24 57 24 	24572447     r7 = add (r7, #-59) ; r7 = add (r7, #-60)
    21cc:	67 24 77 24 	24772467     r7 = add (r7, #-57) ; r7 = add (r7, #-58)
    21d0:	87 24 97 24 	24972487     r7 = add (r7, #-55) ; r7 = add (r7, #-56)
    21d4:	a7 24 b7 24 	24b724a7     r7 = add (r7, #-53) ; r7 = add (r7, #-54)
    21d8:	c7 24 d7 24 	24d724c7     r7 = add (r7, #-51) ; r7 = add (r7, #-52)
    21dc:	e7 24 f7 24 	24f724e7     r7 = add (r7, #-49) ; r7 = add (r7, #-50)
    21e0:	07 25 17 25 	25172507     r7 = add (r7, #-47) ; r7 = add (r7, #-48)
    21e4:	27 25 37 25 	25372527     r7 = add (r7, #-45) ; r7 = add (r7, #-46)
    21e8:	47 25 57 25 	25572547     r7 = add (r7, #-43) ; r7 = add (r7, #-44)
    21ec:	67 25 77 25 	25772567     r7 = add (r7, #-41) ; r7 = add (r7, #-42)
    21f0:	87 25 97 25 	25972587     r7 = add (r7, #-39) ; r7 = add (r7, #-40)
    21f4:	a7 25 b7 25 	25b725a7     r7 = add (r7, #-37) ; r7 = add (r7, #-38)
    21f8:	c7 25 d7 25 	25d725c7     r7 = add (r7, #-35) ; r7 = add (r7, #-36)
    21fc:	e7 25 f7 25 	25f725e7     r7 = add (r7, #-33) ; r7 = add (r7, #-34)
    2200:	07 26 17 26 	26172607     r7 = add (r7, #-31) ; r7 = add (r7, #-32)
    2204:	27 26 37 26 	26372627     r7 = add (r7, #-29) ; r7 = add (r7, #-30)
    2208:	47 26 57 26 	26572647     r7 = add (r7, #-27) ; r7 = add (r7, #-28)
    220c:	67 26 77 26 	26772667     r7 = add (r7, #-25) ; r7 = add (r7, #-26)
    2210:	87 26 97 26 	26972687     r7 = add (r7, #-23) ; r7 = add (r7, #-24)
    2214:	a7 26 b7 26 	26b726a7     r7 = add (r7, #-21) ; r7 = add (r7, #-22)
    2218:	c7 26 d7 26 	26d726c7     r7 = add (r7, #-19) ; r7 = add (r7, #-20)
    221c:	e7 26 f7 26 	26f726e7     r7 = add (r7, #-17) ; r7 = add (r7, #-18)
    2220:	07 27 17 27 	27172707     r7 = add (r7, #-15) ; r7 = add (r7, #-16)
    2224:	27 27 37 27 	27372727     r7 = add (r7, #-13) ; r7 = add (r7, #-14)
    2228:	47 27 57 27 	27572747     r7 = add (r7, #-11) ; r7 = add (r7, #-12)
    222c:	67 27 77 27 	27772767     r7 = add (r7, #-9) ; r7 = add (r7, #-10)
    2230:	87 27 97 27 	27972787     r7 = add (r7, #-7) ; r7 = add (r7, #-8)
    2234:	a7 27 b7 27 	27b727a7     r7 = add (r7, #-5) ; r7 = add (r7, #-6)
    2238:	c7 27 d7 27 	27d727c7     r7 = add (r7, #-3) ; r7 = add (r7, #-4)
    223c:	e7 27 f7 27 	27f727e7     r7 = add (r7, #-1) ; r7 = add (r7, #-2)
    2240:	07 28 17 28 	28172807     r7 = #1 ; r7 = #0
    2244:	27 28 37 28 	28372827     r7 = #3 ; r7 = #2
    2248:	47 28 57 28 	28572847     r7 = #5 ; r7 = #4
    224c:	67 28 77 28 	28772867     r7 = #7 ; r7 = #6
    2250:	87 28 97 28 	28972887     r7 = #9 ; r7 = #8
    2254:	a7 28 b7 28 	28b728a7     r7 = #11 ; r7 = #10
    2258:	c7 28 d7 28 	28d728c7     r7 = #13 ; r7 = #12
    225c:	e7 28 f7 28 	28f728e7     r7 = #15 ; r7 = #14
    2260:	07 29 17 29 	29172907     r7 = #17 ; r7 = #16
    2264:	27 29 37 29 	29372927     r7 = #19 ; r7 = #18
    2268:	47 29 57 29 	29572947     r7 = #21 ; r7 = #20
    226c:	67 29 77 29 	29772967     r7 = #23 ; r7 = #22
    2270:	87 29 97 29 	29972987     r7 = #25 ; r7 = #24
    2274:	a7 29 b7 29 	29b729a7     r7 = #27 ; r7 = #26
    2278:	c7 29 d7 29 	29d729c7     r7 = #29 ; r7 = #28
    227c:	e7 29 f7 29 	29f729e7     r7 = #31 ; r7 = #30
    2280:	07 2a 17 2a 	2a172a07     r7 = #33 ; r7 = #32
    2284:	27 2a 37 2a 	2a372a27     r7 = #35 ; r7 = #34
    2288:	47 2a 57 2a 	2a572a47     r7 = #37 ; r7 = #36
    228c:	67 2a 77 2a 	2a772a67     r7 = #39 ; r7 = #38
    2290:	87 2a 97 2a 	2a972a87     r7 = #41 ; r7 = #40
    2294:	a7 2a b7 2a 	2ab72aa7     r7 = #43 ; r7 = #42
    2298:	c7 2a d7 2a 	2ad72ac7     r7 = #45 ; r7 = #44
    229c:	e7 2a f7 2a 	2af72ae7     r7 = #47 ; r7 = #46
    22a0:	07 2b 17 2b 	2b172b07     r7 = #49 ; r7 = #48
    22a4:	27 2b 37 2b 	2b372b27     r7 = #51 ; r7 = #50
    22a8:	47 2b 57 2b 	2b572b47     r7 = #53 ; r7 = #52
    22ac:	67 2b 77 2b 	2b772b67     r7 = #55 ; r7 = #54
    22b0:	87 2b 97 2b 	2b972b87     r7 = #57 ; r7 = #56
    22b4:	a7 2b b7 2b 	2bb72ba7     r7 = #59 ; r7 = #58
    22b8:	c7 2b d7 2b 	2bd72bc7     r7 = #61 ; r7 = #60
    22bc:	e7 2b f7 2b 	2bf72be7     r7 = #63 ; r7 = #62
    22c0:	07 2c 17 2c 	2c172c07     r7 = add (sp, #4) ; r7 = add (sp, #0)
    22c4:	27 2c 37 2c 	2c372c27     r7 = add (sp, #12) ; r7 = add (sp, #8)
    22c8:	47 2c 57 2c 	2c572c47     r7 = add (sp, #20) ; r7 = add (sp, #16)
    22cc:	67 2c 77 2c 	2c772c67     r7 = add (sp, #28) ; r7 = add (sp, #24)
    22d0:	87 2c 97 2c 	2c972c87     r7 = add (sp, #36) ; r7 = add (sp, #32)
    22d4:	a7 2c b7 2c 	2cb72ca7     r7 = add (sp, #44) ; r7 = add (sp, #40)
    22d8:	c7 2c d7 2c 	2cd72cc7     r7 = add (sp, #52) ; r7 = add (sp, #48)
    22dc:	e7 2c f7 2c 	2cf72ce7     r7 = add (sp, #60) ; r7 = add (sp, #56)
    22e0:	07 2d 17 2d 	2d172d07     r7 = add (sp, #68) ; r7 = add (sp, #64)
    22e4:	27 2d 37 2d 	2d372d27     r7 = add (sp, #76) ; r7 = add (sp, #72)
    22e8:	47 2d 57 2d 	2d572d47     r7 = add (sp, #84) ; r7 = add (sp, #80)
    22ec:	67 2d 77 2d 	2d772d67     r7 = add (sp, #92) ; r7 = add (sp, #88)
    22f0:	87 2d 97 2d 	2d972d87     r7 = add (sp, #100) ; r7 = add (sp, #96)
    22f4:	a7 2d b7 2d 	2db72da7     r7 = add (sp, #108) ; r7 = add (sp, #104)
    22f8:	c7 2d d7 2d 	2dd72dc7     r7 = add (sp, #116) ; r7 = add (sp, #112)
    22fc:	e7 2d f7 2d 	2df72de7     r7 = add (sp, #124) ; r7 = add (sp, #120)
    2300:	07 2e 17 2e 	2e172e07     r7 = add (sp, #132) ; r7 = add (sp, #128)
    2304:	27 2e 37 2e 	2e372e27     r7 = add (sp, #140) ; r7 = add (sp, #136)
    2308:	47 2e 57 2e 	2e572e47     r7 = add (sp, #148) ; r7 = add (sp, #144)
    230c:	67 2e 77 2e 	2e772e67     r7 = add (sp, #156) ; r7 = add (sp, #152)
    2310:	87 2e 97 2e 	2e972e87     r7 = add (sp, #164) ; r7 = add (sp, #160)
    2314:	a7 2e b7 2e 	2eb72ea7     r7 = add (sp, #172) ; r7 = add (sp, #168)
    2318:	c7 2e d7 2e 	2ed72ec7     r7 = add (sp, #180) ; r7 = add (sp, #176)
    231c:	e7 2e f7 2e 	2ef72ee7     r7 = add (sp, #188) ; r7 = add (sp, #184)
    2320:	07 2f 17 2f 	2f172f07     r7 = add (sp, #196) ; r7 = add (sp, #192)
    2324:	27 2f 37 2f 	2f372f27     r7 = add (sp, #204) ; r7 = add (sp, #200)
    2328:	47 2f 57 2f 	2f572f47     r7 = add (sp, #212) ; r7 = add (sp, #208)
    232c:	67 2f 77 2f 	2f772f67     r7 = add (sp, #220) ; r7 = add (sp, #216)
    2330:	87 2f 97 2f 	2f972f87     r7 = add (sp, #228) ; r7 = add (sp, #224)
    2334:	a7 2f b7 2f 	2fb72fa7     r7 = add (sp, #236) ; r7 = add (sp, #232)
    2338:	c7 2f d7 2f 	2fd72fc7     r7 = add (sp, #244) ; r7 = add (sp, #240)
    233c:	e7 2f f7 2f 	2ff72fe7     r7 = add (sp, #252) ; r7 = add (sp, #248)
    2340:	07 30 17 30 	30173007     r7 = r1 ; r7 = r0
    2344:	27 30 37 30 	30373027     r7 = r3 ; r7 = r2
    2348:	47 30 57 30 	30573047     r7 = r5 ; r7 = r4
    234c:	67 30 77 30 	30773067     r7 = r7 ; r7 = r6
    2350:	87 30 97 30 	30973087     r7 = r17 ; r7 = r16
    2354:	a7 30 b7 30 	30b730a7     r7 = r19 ; r7 = r18
    2358:	c7 30 d7 30 	30d730c7     r7 = r21 ; r7 = r20
    235c:	e7 30 f7 30 	30f730e7     r7 = r23 ; r7 = r22
    2360:	07 31 17 31 	31173107     r7 = add (r1, #1) ; r7 = add (r0, #1)
    2364:	27 31 37 31 	31373127     r7 = add (r3, #1) ; r7 = add (r2, #1)
    2368:	47 31 57 31 	31573147     r7 = add (r5, #1) ; r7 = add (r4, #1)
    236c:	67 31 77 31 	31773167     r7 = add (r7, #1) ; r7 = add (r6, #1)
    2370:	87 31 97 31 	31973187     r7 = add (r17, #1) ; r7 = add (r16, #1)
    2374:	a7 31 b7 31 	31b731a7     r7 = add (r19, #1) ; r7 = add (r18, #1)
    2378:	c7 31 d7 31 	31d731c7     r7 = add (r21, #1) ; r7 = add (r20, #1)
    237c:	e7 31 f7 31 	31f731e7     r7 = add (r23, #1) ; r7 = add (r22, #1)
    2380:	07 32 17 32 	32173207     r7 = and (r1, #1) ; r7 = and (r0, #1)
    2384:	27 32 37 32 	32373227     r7 = and (r3, #1) ; r7 = and (r2, #1)
    2388:	47 32 57 32 	32573247     r7 = and (r5, #1) ; r7 = and (r4, #1)
    238c:	67 32 77 32 	32773267     r7 = and (r7, #1) ; r7 = and (r6, #1)
    2390:	87 32 97 32 	32973287     r7 = and (r17, #1) ; r7 = and (r16, #1)
    2394:	a7 32 b7 32 	32b732a7     r7 = and (r19, #1) ; r7 = and (r18, #1)
    2398:	c7 32 d7 32 	32d732c7     r7 = and (r21, #1) ; r7 = and (r20, #1)
    239c:	e7 32 f7 32 	32f732e7     r7 = and (r23, #1) ; r7 = and (r22, #1)
    23a0:	07 33 17 33 	33173307     r7 = add (r1, #-1) ; r7 = add (r0, #-1)
    23a4:	27 33 37 33 	33373327     r7 = add (r3, #-1) ; r7 = add (r2, #-1)
    23a8:	47 33 57 33 	33573347     r7 = add (r5, #-1) ; r7 = add (r4, #-1)
    23ac:	67 33 77 33 	33773367     r7 = add (r7, #-1) ; r7 = add (r6, #-1)
    23b0:	87 33 97 33 	33973387     r7 = add (r17, #-1) ; r7 = add (r16, #-1)
    23b4:	a7 33 b7 33 	33b733a7     r7 = add (r19, #-1) ; r7 = add (r18, #-1)
    23b8:	c7 33 d7 33 	33d733c7     r7 = add (r21, #-1) ; r7 = add (r20, #-1)
    23bc:	e7 33 f7 33 	33f733e7     r7 = add (r23, #-1) ; r7 = add (r22, #-1)
    23c0:	07 34 17 34 	34173407     r7 = sxth (r1) ; r7 = sxth (r0)
    23c4:	27 34 37 34 	34373427     r7 = sxth (r3) ; r7 = sxth (r2)
    23c8:	47 34 57 34 	34573447     r7 = sxth (r5) ; r7 = sxth (r4)
    23cc:	67 34 77 34 	34773467     r7 = sxth (r7) ; r7 = sxth (r6)
    23d0:	87 34 97 34 	34973487     r7 = sxth (r17) ; r7 = sxth (r16)
    23d4:	a7 34 b7 34 	34b734a7     r7 = sxth (r19) ; r7 = sxth (r18)
    23d8:	c7 34 d7 34 	34d734c7     r7 = sxth (r21) ; r7 = sxth (r20)
    23dc:	e7 34 f7 34 	34f734e7     r7 = sxth (r23) ; r7 = sxth (r22)
    23e0:	07 35 17 35 	35173507     r7 = sxtb (r1) ; r7 = sxtb (r0)
    23e4:	27 35 37 35 	35373527     r7 = sxtb (r3) ; r7 = sxtb (r2)
    23e8:	47 35 57 35 	35573547     r7 = sxtb (r5) ; r7 = sxtb (r4)
    23ec:	67 35 77 35 	35773567     r7 = sxtb (r7) ; r7 = sxtb (r6)
    23f0:	87 35 97 35 	35973587     r7 = sxtb (r17) ; r7 = sxtb (r16)
    23f4:	a7 35 b7 35 	35b735a7     r7 = sxtb (r19) ; r7 = sxtb (r18)
    23f8:	c7 35 d7 35 	35d735c7     r7 = sxtb (r21) ; r7 = sxtb (r20)
    23fc:	e7 35 f7 35 	35f735e7     r7 = sxtb (r23) ; r7 = sxtb (r22)
    2400:	07 36 17 36 	36173607     r7 = zxth (r1) ; r7 = zxth (r0)
    2404:	27 36 37 36 	36373627     r7 = zxth (r3) ; r7 = zxth (r2)
    2408:	47 36 57 36 	36573647     r7 = zxth (r5) ; r7 = zxth (r4)
    240c:	67 36 77 36 	36773667     r7 = zxth (r7) ; r7 = zxth (r6)
    2410:	87 36 97 36 	36973687     r7 = zxth (r17) ; r7 = zxth (r16)
    2414:	a7 36 b7 36 	36b736a7     r7 = zxth (r19) ; r7 = zxth (r18)
    2418:	c7 36 d7 36 	36d736c7     r7 = zxth (r21) ; r7 = zxth (r20)
    241c:	e7 36 f7 36 	36f736e7     r7 = zxth (r23) ; r7 = zxth (r22)
    2420:	07 37 17 37 	37173707     r7 = and (r1, #255) ; r7 = and (r0, #255)
    2424:	27 37 37 37 	37373727     r7 = and (r3, #255) ; r7 = and (r2, #255)
    2428:	47 37 57 37 	37573747     r7 = and (r5, #255) ; r7 = and (r4, #255)
    242c:	67 37 77 37 	37773767     r7 = and (r7, #255) ; r7 = and (r6, #255)
    2430:	87 37 97 37 	37973787     r7 = and (r17, #255) ; r7 = and (r16, #255)
    2434:	a7 37 b7 37 	37b737a7     r7 = and (r19, #255) ; r7 = and (r18, #255)
    2438:	c7 37 d7 37 	37d737c7     r7 = and (r21, #255) ; r7 = and (r20, #255)
    243c:	e7 37 f7 37 	37f737e7     r7 = and (r23, #255) ; r7 = and (r22, #255)
    2440:	07 38 17 38 	38173807     r7 = add (r1, r7) ; r7 = add (r0, r7)
    2444:	27 38 37 38 	38373827     r7 = add (r3, r7) ; r7 = add (r2, r7)
    2448:	47 38 57 38 	38573847     r7 = add (r5, r7) ; r7 = add (r4, r7)
    244c:	67 38 77 38 	38773867     r7 = add (r7, r7) ; r7 = add (r6, r7)
    2450:	87 38 97 38 	38973887     r7 = add (r17, r7) ; r7 = add (r16, r7)
    2454:	a7 38 b7 38 	38b738a7     r7 = add (r19, r7) ; r7 = add (r18, r7)
    2458:	c7 38 d7 38 	38d738c7     r7 = add (r21, r7) ; r7 = add (r20, r7)
    245c:	e7 38 f7 38 	38f738e7     r7 = add (r23, r7) ; r7 = add (r22, r7)
    2460:	07 39 17 39 	39173907     p0 = cmp.eq (r1, #3) ; p0 = cmp.eq (r0, #3)
    2464:	27 39 37 39 	39373927     p0 = cmp.eq (r3, #3) ; p0 = cmp.eq (r2, #3)
    2468:	47 39 57 39 	39573947     p0 = cmp.eq (r5, #3) ; p0 = cmp.eq (r4, #3)
    246c:	67 39 77 39 	39773967     p0 = cmp.eq (r7, #3) ; p0 = cmp.eq (r6, #3)
    2470:	87 39 97 39 	39973987     p0 = cmp.eq (r17, #3) ; p0 = cmp.eq (r16, #3)
    2474:	a7 39 b7 39 	39b739a7     p0 = cmp.eq (r19, #3) ; p0 = cmp.eq (r18, #3)
    2478:	c7 39 d7 39 	39d739c7     p0 = cmp.eq (r21, #3) ; p0 = cmp.eq (r20, #3)
    247c:	e7 39 f7 39 	39f739e7     p0 = cmp.eq (r23, #3) ; p0 = cmp.eq (r22, #3)
    2480:	07 3a 17 3a 	3a173a07     r7 = #-1 ; r7 = #-1
    2484:	27 3a 37 3a 	3a373a27     r7 = #-1 ; r7 = #-1
    2488:	47 3a 57 3a 	3a573a47     <unknown>
    248c:	67 3a 77 3a 	3a773a67     <unknown>
    2490:	87 3a 97 3a 	3a973a87     r7 = #-1 ; r7 = #-1
    2494:	a7 3a b7 3a 	3ab73aa7     r7 = #-1 ; r7 = #-1
    2498:	c7 3a d7 3a 	3ad73ac7     <unknown>
    249c:	e7 3a f7 3a 	3af73ae7     <unknown>
    24a0:	07 3b 17 3b 	3b173b07     r7 = #-1 ; r7 = #-1
    24a4:	27 3b 37 3b 	3b373b27     r7 = #-1 ; r7 = #-1
    24a8:	47 3b 57 3b 	3b573b47     <unknown>
    24ac:	67 3b 77 3b 	3b773b67     <unknown>
    24b0:	87 3b 97 3b 	3b973b87     r7 = #-1 ; r7 = #-1
    24b4:	a7 3b b7 3b 	3bb73ba7     r7 = #-1 ; r7 = #-1
    24b8:	c7 3b d7 3b 	3bd73bc7     <unknown>
    24bc:	e7 3b f7 3b 	3bf73be7     <unknown>
    24c0:	07 3c 17 3c 	3c173c07     <unknown>
    24c4:	27 3c 37 3c 	3c373c27     <unknown>
    24c8:	47 3c 57 3c 	3c573c47     <unknown>
    24cc:	67 3c 77 3c 	3c773c67     <unknown>
    24d0:	87 3c 97 3c 	3c973c87     <unknown>
    24d4:	a7 3c b7 3c 	3cb73ca7     <unknown>
    24d8:	c7 3c d7 3c 	3cd73cc7     <unknown>
    24dc:	e7 3c f7 3c 	3cf73ce7     <unknown>
    24e0:	07 3d 17 3d 	3d173d07     r23:22 = combine (#0, r1) ; r23:22 = combine (#0, r0)
    24e4:	27 3d 37 3d 	3d373d27     r23:22 = combine (#0, r3) ; r23:22 = combine (#0, r2)
    24e8:	47 3d 57 3d 	3d573d47     r23:22 = combine (#0, r5) ; r23:22 = combine (#0, r4)
    24ec:	67 3d 77 3d 	3d773d67     r23:22 = combine (#0, r7) ; r23:22 = combine (#0, r6)
    24f0:	87 3d 97 3d 	3d973d87     r23:22 = combine (#0, r17) ; r23:22 = combine (#0, r16)
    24f4:	a7 3d b7 3d 	3db73da7     r23:22 = combine (#0, r19) ; r23:22 = combine (#0, r18)
    24f8:	c7 3d d7 3d 	3dd73dc7     r23:22 = combine (#0, r21) ; r23:22 = combine (#0, r20)
    24fc:	e7 3d f7 3d 	3df73de7     r23:22 = combine (#0, r23) ; r23:22 = combine (#0, r22)
    2500:	07 3e 17 3e 	3e173e07     <unknown>
    2504:	27 3e 37 3e 	3e373e27     <unknown>
    2508:	47 3e 57 3e 	3e573e47     <unknown>
    250c:	67 3e 77 3e 	3e773e67     <unknown>
    2510:	87 3e 97 3e 	3e973e87     <unknown>
    2514:	a7 3e b7 3e 	3eb73ea7     <unknown>
    2518:	c7 3e d7 3e 	3ed73ec7     <unknown>
    251c:	e7 3e f7 3e 	3ef73ee7     <unknown>
    2520:	07 3f 17 3f 	3f173f07     r23:22 = combine (#0, r1) ; r23:22 = combine (#0, r0)
    2524:	27 3f 37 3f 	3f373f27     r23:22 = combine (#0, r3) ; r23:22 = combine (#0, r2)
    2528:	47 3f 57 3f 	3f573f47     r23:22 = combine (#0, r5) ; r23:22 = combine (#0, r4)
    252c:	67 3f 77 3f 	3f773f67     r23:22 = combine (#0, r7) ; r23:22 = combine (#0, r6)
    2530:	87 3f 97 3f 	3f973f87     r23:22 = combine (#0, r17) ; r23:22 = combine (#0, r16)
    2534:	a7 3f b7 3f 	3fb73fa7     r23:22 = combine (#0, r19) ; r23:22 = combine (#0, r18)
    2538:	c7 3f d7 3f 	3fd73fc7     r23:22 = combine (#0, r21) ; r23:22 = combine (#0, r20)
    253c:	e7 3f f7 3f 	3ff73fe7     r23:22 = combine (#0, r23) ; r23:22 = combine (#0, r22)
    2540:	07 40 17 40 	40174007     <unknown>
    2544:	27 40 37 40 	40374027     <unknown>
    2548:	47 40 57 40 	40574047     <unknown>
    254c:	67 40 77 40 	40774067     <unknown>
    2550:	87 40 97 40 	40974087     <unknown>
    2554:	a7 40 b7 40 	40b740a7     <unknown>
    2558:	c7 40 d7 40 	40d740c7     <unknown>
    255c:	e7 40 f7 40 	40f740e7     <unknown>
    2560:	07 41 17 41 	41174107     { if (p0) r7 = memb (r23 + #8)
    2564:	27 41 37 41 	41374127       if (p0) r7 = memub (r23 + #9)
    2568:	47 41 57 41 	41574147       if (p0) r7 = memh (r23 + #20)
    256c:	67 41 77 41 	41774167       if (p0) r7 = memuh (r23 + #22)
    2570:	87 41 97 41 	41974187       if (p0) r7 = memw (r23 + #48)
    2574:	a7 41 b7 41 	41b741a7     <unknown>
    2578:	c7 41 d7 41 	41d741c7       if (p0) r8:7 = memd (r23 + #112)
    257c:	e7 41 f7 41 	41f741e7     <unknown>
    2580:	07 42 17 42 	42174207     <unknown>
    2584:	27 42 37 42 	42374227     <unknown>
    2588:	47 42 57 42 	42574247     <unknown>
    258c:	67 42 77 42 	42774267     <unknown>
    2590:	87 42 97 42 	42974287     <unknown>
    2594:	a7 42 b7 42 	42b742a7     <unknown>
    2598:	c7 42 d7 42 	42d742c7     <unknown>
    259c:	e7 42 f7 42 	42f742e7     <unknown>
    25a0:	07 43 17 43 	43174307       if (p0.new) r7 = memb (r23 + #24)
    25a4:	27 43 37 43 	43374327       if (p0.new) r7 = memub (r23 + #25)
    25a8:	47 43 57 43 	43574347       if (p0.new) r7 = memh (r23 + #52)
    25ac:	67 43 77 43 	43774367       if (p0.new) r7 = memuh (r23 + #54)
    25b0:	87 43 97 43 	43974387       if (p0.new) r7 = memw (r23 + #112)
    25b4:	a7 43 b7 43 	43b743a7     <unknown>
    25b8:	c7 43 d7 43 	43d743c7       if (p0.new) r8:7 = memd (r23 + #240)
    25bc:	e7 43 f7 43 	43f743e7     <unknown>
    25c0:	07 44 17 44 	44174407     <unknown>
    25c4:	27 44 37 44 	44374427     <unknown>
    25c8:	47 44 57 44 	44574447     <unknown>
    25cc:	67 44 77 44 	44774467     <unknown>
    25d0:	87 44 97 44 	44974487     <unknown>
    25d4:	a7 44 b7 44 	44b744a7     <unknown>
    25d8:	c7 44 d7 44 	44d744c7     <unknown>
    25dc:	e7 44 f7 44 	44f744e7     <unknown>
    25e0:	07 45 17 45 	45174507       if !p0 r7 = memb (r23 + #40)
    25e4:	27 45 37 45 	45374527       if !p0 r7 = memub (r23 + #41)
    25e8:	47 45 57 45 	45574547       if !p0 r7 = memh (r23 + #84)
    25ec:	67 45 77 45 	45774567       if !p0 r7 = memuh (r23 + #86)
    25f0:	87 45 97 45 	45974587       if !p0 r7 = memw (r23 + #176)
    25f4:	a7 45 b7 45 	45b745a7     <unknown>
    25f8:	c7 45 d7 45 	45d745c7       if !p0 r8:7 = memd (r23 + #368)
    25fc:	e7 45 f7 45 	45f745e7     <unknown>
    2600:	07 46 17 46 	46174607     <unknown>
    2604:	27 46 37 46 	46374627     <unknown>
    2608:	47 46 57 46 	46574647     <unknown>
    260c:	67 46 77 46 	46774667     <unknown>
    2610:	87 46 97 46 	46974687     <unknown>
    2614:	a7 46 b7 46 	46b746a7     <unknown>
    2618:	c7 46 d7 46 	46d746c7     <unknown>
    261c:	e7 46 f7 46 	46f746e7     <unknown>
    2620:	07 47 17 47 	47174707       if !p0.new r7 = memb (r23 + #56)
    2624:	27 47 37 47 	47374727       if !p0.new r7 = memub (r23 + #57)
    2628:	47 47 57 47 	47574747       if !p0.new r7 = memh (r23 + #116)
    262c:	67 47 77 47 	47774767       if !p0.new r7 = memuh (r23 + #118)
    2630:	87 47 97 47 	47974787       if !p0.new r7 = memw (r23 + #240)
    2634:	a7 47 b7 47 	47b747a7     <unknown>
    2638:	c7 47 d7 47 	47d747c7       if !p0.new r8:7 = memd (r23 + #496)
    263c:	e7 47 f7 47 	47f747e7     <unknown>
    2640:	07 48 17 48 	48174807       memb (gp + #11783) = r8
    2644:	27 48 37 48 	48374827     <unknown>
    2648:	47 48 57 48 	48574847       memh (gp + #23694) = r8
    264c:	67 48 77 48 	48774867       memh (gp + #23758) = r8.h
    2650:	87 48 97 48 	48974887       memw (gp + #47644) = r8
    2654:	a7 48 b7 48 	48b748a7       memh (gp + #23886) = r8.new
    2658:	c7 48 d7 48 	48d748c7       memd (gp + #95800) = r9:8
    265c:	e7 48 f7 48 	48f748e7     <unknown>
    2660:	07 49 17 49 	49174907       r7 = memb (gp + #11848)
    2664:	27 49 37 49 	49374927       r7 = memub (gp + #11849)
    2668:	47 49 57 49 	49574947       r7 = memh (gp + #23700)
    266c:	67 49 77 49 	49774967       r7 = memuh (gp + #23702)
    2670:	87 49 97 49 	49974987       r7 = memw (gp + #47408)
    2674:	a7 49 b7 49 	49b749a7     <unknown>
    2678:	c7 49 d7 49 	49d749c7       r8:7 = memd (gp + #94832)
    267c:	e7 49 f7 49 	49f749e7     <unknown>
    2680:	07 4a 17 4a 	4a174a07       memb (gp + #28167) = r10
    2684:	27 4a 37 4a 	4a374a27     <unknown>
    2688:	47 4a 57 4a 	4a574a47       memh (gp + #56462) = r10
    268c:	67 4a 77 4a 	4a774a67       memh (gp + #56526) = r10.h
    2690:	87 4a 97 4a 	4a974a87       memw (gp + #113180) = r10
    2694:	a7 4a b7 4a 	4ab74aa7       memh (gp + #56654) = r8.new
    2698:	c7 4a d7 4a 	4ad74ac7       memd (gp + #226872) = r11:10
    269c:	e7 4a f7 4a 	4af74ae7     <unknown>
    26a0:	07 4b 17 4b 	4b174b07       r7 = memb (gp + #28248)
    26a4:	27 4b 37 4b 	4b374b27       r7 = memub (gp + #28249)
    26a8:	47 4b 57 4b 	4b574b47       r7 = memh (gp + #56500)
    26ac:	67 4b 77 4b 	4b774b67       r7 = memuh (gp + #56502)
    26b0:	87 4b 97 4b 	4b974b87       r7 = memw (gp + #113008)
    26b4:	a7 4b b7 4b 	4bb74ba7     <unknown>
    26b8:	c7 4b d7 4b 	4bd74bc7       r8:7 = memd (gp + #226032)
    26bc:	e7 4b f7 4b 	4bf74be7     <unknown>
    26c0:	07 4c 17 4c 	4c174c07       memb (gp + #44551) = r12
    26c4:	27 4c 37 4c 	4c374c27     <unknown>
    26c8:	47 4c 57 4c 	4c574c47       memh (gp + #89230) = r12
    26cc:	67 4c 77 4c 	4c774c67       memh (gp + #89294) = r12.h
    26d0:	87 4c 97 4c 	4c974c87       memw (gp + #178716) = r12
    26d4:	a7 4c b7 4c 	4cb74ca7       memh (gp + #89422) = r0.new
    26d8:	c7 4c d7 4c 	4cd74cc7       memd (gp + #357944) = r13:12
    26dc:	e7 4c f7 4c 	4cf74ce7     <unknown>
    26e0:	07 4d 17 4d 	4d174d07       r7 = memb (gp + #44648)
    26e4:	27 4d 37 4d 	4d374d27       r7 = memub (gp + #44649)
    26e8:	47 4d 57 4d 	4d574d47       r7 = memh (gp + #89300)
    26ec:	67 4d 77 4d 	4d774d67       r7 = memuh (gp + #89302)
    26f0:	87 4d 97 4d 	4d974d87       r7 = memw (gp + #178608)
    26f4:	a7 4d b7 4d 	4db74da7     <unknown>
    26f8:	c7 4d d7 4d 	4dd74dc7       r8:7 = memd (gp + #357232)
    26fc:	e7 4d f7 4d 	4df74de7     <unknown>
    2700:	07 4e 17 4e 	4e174e07       memb (gp + #60935) = r14
    2704:	27 4e 37 4e 	4e374e27     <unknown>
    2708:	47 4e 57 4e 	4e574e47       memh (gp + #121998) = r14
    270c:	67 4e 77 4e 	4e774e67       memh (gp + #122062) = r14.h
    2710:	87 4e 97 4e 	4e974e87       memw (gp + #244252) = r14
    2714:	a7 4e b7 4e 	4eb74ea7       memh (gp + #122190) = r0.new
    2718:	c7 4e d7 4e 	4ed74ec7       memd (gp + #489016) = r15:14
    271c:	e7 4e f7 4e 	4ef74ee7     <unknown>
    2720:	07 4f 17 4f 	4f174f07       r7 = memb (gp + #61048)
    2724:	27 4f 37 4f 	4f374f27       r7 = memub (gp + #61049)
    2728:	47 4f 57 4f 	4f574f47       r7 = memh (gp + #122100)
    272c:	67 4f 77 4f 	4f774f67       r7 = memuh (gp + #122102)
    2730:	87 4f 97 4f 	4f974f87       r7 = memw (gp + #244208)
    2734:	a7 4f b7 4f 	4fb74fa7     <unknown>
    2738:	c7 4f d7 4f 	4fd74fc7       r8:7 = memd (gp + #488432)
    273c:	e7 4f f7 4f 	4ff74fe7     <unknown>
    2740:	07 50 17 50 	50175007     <unknown>
    2744:	27 50 37 50 	50375027     <unknown>
    2748:	47 50 57 50 	50575047     <unknown>
    274c:	67 50 77 50 	50775067     <unknown>
    2750:	87 50 97 50 	50975087     <unknown>
    2754:	a7 50 b7 50 	50b750a7       callr r23
    2758:	c7 50 d7 50 	50d750c7     <unknown>
    275c:	e7 50 f7 50 	50f750e7     <unknown>
    2760:	07 51 17 51 	51175107       if (p1) callr r23
    2764:	27 51 37 51 	51375127       if !p1 callr r23
    2768:	47 51 57 51 	51575147     <unknown>
    276c:	67 51 77 51 	51775167     <unknown>
    2770:	87 51 97 51 	51975187     <unknown>
    2774:	a7 51 b7 51 	51b751a7     <unknown>
    2778:	c7 51 d7 51 	51d751c7     <unknown>
    277c:	e7 51 f7 51 	51f751e7     <unknown>
    2780:	07 52 17 52 	52175207     <unknown>
    2784:	27 52 37 52 	52375227     <unknown>
    2788:	47 52 57 52 	52575247     <unknown>
    278c:	67 52 77 52 	52775267     <unknown>
    2790:	87 52 97 52 	52975287       jumpr r23
    2794:	a7 52 b7 52 	52b752a7       hintjr (r23)
    2798:	c7 52 d7 52 	52d752c7     <unknown>
    279c:	e7 52 f7 52 	52f752e7     <unknown>
    27a0:	07 53 17 53 	53175307     <unknown>
    27a4:	27 53 37 53 	53375327     <unknown>
    27a8:	47 53 57 53 	53575347       if (p3) jumpr r23
    27ac:	67 53 77 53 	53775367       if !p3 jumpr r23
    27b0:	87 53 97 53 	53975387     <unknown>
    27b4:	a7 53 b7 53 	53b753a7     <unknown>
    27b8:	c7 53 d7 53 	53d753c7     <unknown>
    27bc:	e7 53 f7 53 	53f753e7     <unknown>
    27c0:	07 54 17 54 	54175407       trap0 (#161)
    27c4:	27 54 37 54 	54375427       trap0 (#161)
    27c8:	47 54 57 54 	54575447       pause (#161)
    27cc:	67 54 77 54 	54775467       pause (#161)
    27d0:	87 54 97 54 	54975487       trap1 (#161)
    27d4:	a7 54 b7 54 	54b754a7       trap1 (#161)
    27d8:	c7 54 d7 54 	54d754c7     <unknown>
    27dc:	e7 54 f7 54 	54f754e7     <unknown>
    27e0:	07 55 17 55 	55175507     <unknown>
    27e4:	27 55 37 55 	55375527     <unknown>
    27e8:	47 55 57 55 	55575547     <unknown>
    27ec:	67 55 77 55 	55775567     <unknown>
    27f0:	87 55 97 55 	55975587     <unknown>
    27f4:	a7 55 b7 55 	55b755a7       r7 = icdatar (r23)
    27f8:	c7 55 d7 55 	55d755c7       ictagw (r23, r21)
    27fc:	e7 55 f7 55 	55f755e7       r7 = ictagr (r23)
    2800:	07 56 17 56 	56175607     <unknown>
    2804:	27 56 37 56 	56375627     <unknown>
    2808:	47 56 57 56 	56575647     <unknown>
    280c:	67 56 77 56 	56775667     <unknown>
    2810:	87 56 97 56 	56975687     <unknown>
    2814:	a7 56 b7 56 	56b756a7     <unknown>
    2818:	c7 56 d7 56 	56d756c7       ickill
    281c:	e7 56 f7 56 	56f756e7     <unknown>
    2820:	07 57 17 57 	57175707     <unknown>
    2824:	27 57 37 57 	57375727     <unknown>
    2828:	47 57 57 57 	57575747     <unknown>
    282c:	67 57 77 57 	57775767     <unknown>
    2830:	87 57 97 57 	57975787     <unknown>
    2834:	a7 57 b7 57 	57b757a7     <unknown>
    2838:	c7 57 d7 57 	57d757c7     <unknown>
    283c:	e7 57 f7 57 	57f757e7     <unknown>
    2840:	07 58 17 58 	58175807       jump bd56c <end+0x811ec>
    2844:	27 58 37 58 	58375827       jump 1bd5ac <DEFAULT_STACK_SIZE+0xbd5ac>
    2848:	47 58 57 58 	58575847       jump 2bd5ec <DEFAULT_STACK_SIZE+0x1bd5ec>
    284c:	67 58 77 58 	58775867       jump 3bd62c <DEFAULT_STACK_SIZE+0x2bd62c>
    2850:	87 58 97 58 	58975887       jump 4bd66c <DEFAULT_STACK_SIZE+0x3bd66c>
    2854:	a7 58 b7 58 	58b758a7       jump 5bd6ac <DEFAULT_STACK_SIZE+0x4bd6ac>
    2858:	c7 58 d7 58 	58d758c7       jump 6bd6ec <DEFAULT_STACK_SIZE+0x5bd6ec>
    285c:	e7 58 f7 58 	58f758e7       jump 7bd72c <DEFAULT_STACK_SIZE+0x6bd72c>
    2860:	07 59 17 59 	59175907       jump ff8bd76c <DEFAULT_HEAP_SIZE+0xfb8bd76c>
    2864:	27 59 37 59 	59375927       jump ff9bd7ac <DEFAULT_HEAP_SIZE+0xfb9bd7ac>
    2868:	47 59 57 59 	59575947       jump ffabd7ec <DEFAULT_HEAP_SIZE+0xfbabd7ec>
    286c:	67 59 77 59 	59775967       jump ffbbd82c <DEFAULT_HEAP_SIZE+0xfbbbd82c>
    2870:	87 59 97 59 	59975987       jump ffcbd86c <DEFAULT_HEAP_SIZE+0xfbcbd86c>
    2874:	a7 59 b7 59 	59b759a7       jump ffdbd8ac <DEFAULT_HEAP_SIZE+0xfbdbd8ac>
    2878:	c7 59 d7 59 	59d759c7       jump ffebd8ec <DEFAULT_HEAP_SIZE+0xfbebd8ec>
    287c:	e7 59 f7 59 	59f759e7       jump fffbd92c <DEFAULT_HEAP_SIZE+0xfbfbd92c>
    2880:	07 5a 17 5a 	5a175a07     <unknown>
    2884:	27 5a 37 5a 	5a375a27     <unknown>
    2888:	47 5a 57 5a 	5a575a47     <unknown>
    288c:	67 5a 77 5a 	5a775a67     <unknown>
    2890:	87 5a 97 5a 	5a975a87     <unknown>
    2894:	a7 5a b7 5a 	5ab75aa7     <unknown>
    2898:	c7 5a d7 5a 	5ad75ac7     <unknown>
    289c:	e7 5a f7 5a 	5af75ae7     <unknown>
    28a0:	07 5b 17 5b 	5b175b07     <unknown>
    28a4:	27 5b 37 5b 	5b375b27     <unknown>
    28a8:	47 5b 57 5b 	5b575b47     <unknown>
    28ac:	67 5b 77 5b 	5b775b67     <unknown>
    28b0:	87 5b 97 5b 	5b975b87     <unknown>
    28b4:	a7 5b b7 5b 	5bb75ba7     <unknown>
    28b8:	c7 5b d7 5b 	5bd75bc7     <unknown>
    28bc:	e7 5b f7 5b 	5bf75be7     <unknown>
    28c0:	07 5c 17 5c 	5c175c07       if (p0.new) jump:t 816c <_Xp_invx+0x3c>
    28c4:	27 5c 37 5c 	5c375c27       if !p0.new jump:t 81ac <_Xp_invx+0x7c>
    28c8:	47 5c 57 5c 	5c575c47       if (p0.new) jump:t 101ec <fbit.2465+0x4>
    28cc:	67 5c 77 5c 	5c775c67       if !p0.new jump:t 1022c <fbit.2465+0x44>
    28d0:	87 5c 97 5c 	5c975c87       if (p0.new) jump:t ffff826c <DEFAULT_HEAP_SIZE+0xfbff826c>
    28d4:	a7 5c b7 5c 	5cb75ca7       if !p0.new jump:t ffff82ac <DEFAULT_HEAP_SIZE+0xfbff82ac>
    28d8:	c7 5c d7 5c 	5cd75cc7       if (p0.new) jump:t 2ec <.InitParams+0xb8>
    28dc:	e7 5c f7 5c 	5cf75ce7       if !p0.new jump:t 32c <.InitParams+0xf8>
    28e0:	07 5d 17 5d 	5d175d07     <unknown>
    28e4:	27 5d 37 5d 	5d375d27     <unknown>
    28e8:	47 5d 57 5d 	5d575d47     <unknown>
    28ec:	67 5d 77 5d 	5d775d67     <unknown>
    28f0:	87 5d 97 5d 	5d975d87     <unknown>
    28f4:	a7 5d b7 5d 	5db75da7     <unknown>
    28f8:	c7 5d d7 5d 	5dd75dc7     <unknown>
    28fc:	e7 5d f7 5d 	5df75de7     <unknown>
    2900:	07 5e 17 5e 	5e175e07     <unknown>
    2904:	27 5e 37 5e 	5e375e27     <unknown>
    2908:	47 5e 57 5e 	5e575e47     <unknown>
    290c:	67 5e 77 5e 	5e775e67     <unknown>
    2910:	87 5e 97 5e 	5e975e87     <unknown>
    2914:	a7 5e b7 5e 	5eb75ea7     <unknown>
    2918:	c7 5e d7 5e 	5ed75ec7     <unknown>
    291c:	e7 5e f7 5e 	5ef75ee7     <unknown>
    2920:	07 5f 17 5f 	5f175f07     <unknown>
    2924:	27 5f 37 5f 	5f375f27     <unknown>
    2928:	47 5f 57 5f 	5f575f47     <unknown>
    292c:	67 5f 77 5f 	5f775f67     <unknown>
    2930:	87 5f 97 5f 	5f975f87     <unknown>
    2934:	a7 5f b7 5f 	5fb75fa7     <unknown>
    2938:	c7 5f d7 5f 	5fd75fc7     <unknown>
    293c:	e7 5f f7 5f 	5ff75fe7     <unknown>
    2940:	07 60 17 60 	60176007       loop0 (2560 <UPTE_START+0x820>, r23)
    2944:	27 60 37 60 	60376027       loop1 (2560 <UPTE_START+0x820>, r23)
    2948:	47 60 57 60 	60576047     <unknown>
    294c:	67 60 77 60 	60776067     <unknown>
    2950:	87 60 97 60 	60976087     <unknown>
    2954:	a7 60 b7 60 	60b760a7       p3 = sp1loop0 (2560 <UPTE_START+0x820>, r23)
    2958:	c7 60 d7 60 	60d760c7       p3 = sp2loop0 (2560 <UPTE_START+0x820>, r23)
    295c:	e7 60 f7 60 	60f760e7       p3 = sp3loop0 (2560 <UPTE_START+0x820>, r23)
    2960:	07 61 17 61 	61176107       if (r23 != #0) jump:nt 476c <b_repmat+0x2c>
    2964:	27 61 37 61 	61376127       if (r23 != #0) jump:nt 7ac <__coredump+0x7c>
    2968:	47 61 57 61 	61576147       if (r23 >= #0) jump:nt 47ec <rtGetNaN+0xc>
    296c:	67 61 77 61 	61776167       if (r23 >= #0) jump:nt 82c <__coredump+0xfc>
    2970:	87 61 97 61 	61976187       if (r23 == #0) jump:nt 486c <rtIsNaNF+0xc>
    2974:	a7 61 b7 61 	61b761a7       if (r23 == #0) jump:nt 8ac <__coredump+0x17c>
    2978:	c7 61 d7 61 	61d761c7       if (r23 <= #0) jump:nt 48ec <b_sum+0x3c>
    297c:	e7 61 f7 61 	61f761e7       if (r23 <= #0) jump:nt 92c <event_handle_reset+0xc>
    2980:	07 62 17 62 	control register not found: 762176207     
    2984:	27 62 37 62 	62376227       m1 = r23
    2988:	47 62 57 62 	62576247       trace (r23)
    298c:	67 62 77 62 	62776267     <unknown>
    2990:	87 62 97 62 	62976287     <unknown>
    2994:	a7 62 b7 62 	62b762a7     <unknown>
    2998:	c7 62 d7 62 	62d762c7     <unknown>
    299c:	e7 62 f7 62 	62f762e7     <unknown>
    29a0:	07 63 17 63 	63176307       g8:7 = r24:23
    29a4:	27 63 37 63 	63376327       c8:7 = r24:23
    29a8:	47 63 57 63 	63576347     <unknown>
    29ac:	67 63 77 63 	63776367     <unknown>
    29b0:	87 63 97 63 	63976387     <unknown>
    29b4:	a7 63 b7 63 	63b763a7     <unknown>
    29b8:	c7 63 d7 63 	63d763c7     <unknown>
    29bc:	e7 63 f7 63 	63f763e7     <unknown>
    29c0:	07 64 17 64 	64176407       swi (r23)
    29c4:	27 64 37 64 	64376427     <unknown>
    29c8:	47 64 57 64 	64576447     <unknown>
    29cc:	67 64 77 64 	64776467     <unknown>
    29d0:	87 64 97 64 	64976487     <unknown>
    29d4:	a7 64 b7 64 	64b764a7     <unknown>
    29d8:	c7 64 d7 64 	64d764c7     <unknown>
    29dc:	e7 64 f7 64 	64f764e7     <unknown>
    29e0:	07 65 17 65 	65176507       crswap (r23, sgp0)
    29e4:	27 65 37 65 	65376527       crswap (r23, sgp1)
    29e8:	47 65 57 65 	65576547     <unknown>
    29ec:	67 65 77 65 	65776567     <unknown>
    29f0:	87 65 97 65 	65976587     <unknown>
    29f4:	a7 65 b7 65 	65b765a7     <unknown>
    29f8:	c7 65 d7 65 	65d765c7     <unknown>
    29fc:	e7 65 f7 65 	65f765e7     <unknown>
    2a00:	07 66 17 66 	66176607       r7 = getimask (r23)
    2a04:	27 66 37 66 	66376627     <unknown>
    2a08:	47 66 57 66 	66576647     <unknown>
    2a0c:	67 66 77 66 	66776667       r7 = iassignr (r23)
    2a10:	87 66 97 66 	66976687     <unknown>
    2a14:	a7 66 b7 66 	66b766a7     <unknown>
    2a18:	c7 66 d7 66 	66d766c7     <unknown>
    2a1c:	e7 66 f7 66 	66f766e7     <unknown>
    2a20:	07 67 17 67 	67176707       ccr = r23
    2a24:	27 67 37 67 	67376727       brkptcfg1 = r23
    2a28:	47 67 57 67 	67576747     <unknown>
    2a2c:	67 67 77 67 	67776767     <unknown>
    2a30:	87 67 97 67 	67976787     <unknown>
    2a34:	a7 67 b7 67 	67b767a7     <unknown>
    2a38:	c7 67 d7 67 	67d767c7     <unknown>
    2a3c:	e7 67 f7 67 	67f767e7     <unknown>
    2a40:	07 68 17 68 	68176807       r8:7 = c24:23
    2a44:	27 68 37 68 	68376827       r8:7 = g24:23
    2a48:	47 68 57 68 	68576847     <unknown>
    2a4c:	67 68 77 68 	68776867     <unknown>
    2a50:	87 68 97 68 	68976887     <unknown>
    2a54:	a7 68 b7 68 	68b768a7     <unknown>
    2a58:	c7 68 d7 68 	68d768c7     <unknown>
    2a5c:	e7 68 f7 68 	68f768e7     <unknown>
    2a60:	07 69 17 69 	69176907       loop0 (25f0 <UPTE_START+0x8b0>, #739)
    2a64:	27 69 37 69 	69376927       loop1 (25f0 <UPTE_START+0x8b0>, #743)
    2a68:	47 69 57 69 	69576947     <unknown>
    2a6c:	67 69 77 69 	69776967     <unknown>
    2a70:	87 69 97 69 	69976987     <unknown>
    2a74:	a7 69 b7 69 	69b769a7       p3 = sp1loop0 (25f0 <UPTE_START+0x8b0>, #759)
    2a78:	c7 69 d7 69 	69d769c7       p3 = sp2loop0 (25f0 <UPTE_START+0x8b0>, #763)
    2a7c:	e7 69 f7 69 	69f769e7       p3 = sp3loop0 (25f0 <UPTE_START+0x8b0>, #767)
    2a80:	07 6a 17 6a 	control register not found: 236a176a07     
    2a84:	27 6a 37 6a 	control register not found: 236a376a27     
    2a88:	47 6a 57 6a 	6a576a47     <unknown>
    2a8c:	67 6a 77 6a 	6a776a67     <unknown>
    2a90:	87 6a 97 6a 	6a976a87     <unknown>
    2a94:	a7 6a b7 6a 	6ab76aa7     <unknown>
    2a98:	c7 6a d7 6a 	6ad76ac7     <unknown>
    2a9c:	e7 6a f7 6a 	6af76ae7     <unknown>
    2aa0:	07 6b 17 6b 	6b176b07     <unknown>
    2aa4:	27 6b 37 6b 	6b376b27     <unknown>
    2aa8:	47 6b 57 6b 	6b576b47     <unknown>
    2aac:	67 6b 77 6b 	6b776b67     <unknown>
    2ab0:	87 6b 97 6b 	6b976b87     <unknown>
    2ab4:	a7 6b b7 6b 	6bb76ba7     <unknown>
    2ab8:	c7 6b d7 6b 	6bd76bc7     <unknown>
    2abc:	e7 6b f7 6b 	6bf76be7     <unknown>
    2ac0:	07 6c 17 6c 	6c176c07     <unknown>
    2ac4:	27 6c 37 6c 	6c376c27       tlblock
    2ac8:	47 6c 57 6c 	6c576c47       r8:7 = tlbr (r23)
    2acc:	67 6c 77 6c 	6c776c67     <unknown>
    2ad0:	87 6c 97 6c 	6c976c87       r7 = tlbp (r23)
    2ad4:	a7 6c b7 6c 	6cb76ca7       tlbinvasid (r23)
    2ad8:	c7 6c d7 6c 	6cd76cc7     <unknown>
    2adc:	e7 6c f7 6c 	6cf76ce7       r7 = tlboc (r24:23)
    2ae0:	07 6d 17 6d 	6d176d07       s8:7 = r24:23
    2ae4:	27 6d 37 6d 	6d376d27       s40:39 = r24:23
    2ae8:	47 6d 57 6d 	6d576d47       s8:7 = r24:23
    2aec:	67 6d 77 6d 	6d776d67       s40:39 = r24:23
    2af0:	87 6d 97 6d 	6d976d87     <unknown>
    2af4:	a7 6d b7 6d 	6db76da7     <unknown>
    2af8:	c7 6d d7 6d 	6dd76dc7     <unknown>
    2afc:	e7 6d f7 6d 	6df76de7     <unknown>
    2b00:	07 6e 17 6e 	6e176e07     <unknown>
    2b04:	27 6e 37 6e 	6e376e27     <unknown>
    2b08:	47 6e 57 6e 	6e576e47     <unknown>
    2b0c:	67 6e 77 6e 	6e776e67     <unknown>
    2b10:	87 6e 97 6e 	6e976e87       r7 = s23
    2b14:	a7 6e b7 6e 	6eb76ea7       r7 = s55
    2b18:	c7 6e d7 6e 	6ed76ec7       r7 = s23
    2b1c:	e7 6e f7 6e 	6ef76ee7       r7 = s55
    2b20:	07 6f 17 6f 	6f176f07       r8:7 = s24:23
    2b24:	27 6f 37 6f 	6f376f27       r8:7 = s56:55
    2b28:	47 6f 57 6f 	6f576f47       r8:7 = s24:23
    2b2c:	67 6f 77 6f 	6f776f67       r8:7 = s56:55
    2b30:	87 6f 97 6f 	6f976f87       r8:7 = s24:23
    2b34:	a7 6f b7 6f 	6fb76fa7       r8:7 = s56:55
    2b38:	c7 6f d7 6f 	6fd76fc7       r8:7 = s24:23
    2b3c:	e7 6f f7 6f 	6ff76fe7       r8:7 = s56:55
    2b40:	07 70 17 70 	70177007       if (p0) r7 = aslh (r23)
    2b44:	27 70 37 70 	70377027       if (p0) r7 = asrh (r23)
    2b48:	47 70 57 70 	70577047     <unknown>
    2b4c:	67 70 77 70 	70777067     <unknown>
    2b50:	87 70 97 70 	70977087       if (p0) r7 = zxtb (r23)
    2b54:	a7 70 b7 70 	70b770a7       if (p0) r7 = sxtb (r23)
    2b58:	c7 70 d7 70 	70d770c7       if (p0) r7 = zxth (r23)
    2b5c:	e7 70 f7 70 	70f770e7       if (p0) r7 = sxth (r23)
    2b60:	07 71 17 71 	71177107     <unknown>
    2b64:	27 71 37 71 	71377127       r23.l = #12583
    2b68:	47 71 57 71 	71577147     <unknown>
    2b6c:	67 71 77 71 	71777167       r23.l = #29031
    2b70:	87 71 97 71 	71977187     <unknown>
    2b74:	a7 71 b7 71 	71b771a7       r23.l = #45479
    2b78:	c7 71 d7 71 	71d771c7     <unknown>
    2b7c:	e7 71 f7 71 	71f771e7       r23.l = #61927
    2b80:	07 72 17 72 	72177207     <unknown>
    2b84:	27 72 37 72 	72377227       r23.h = #12839
    2b88:	47 72 57 72 	72577247     <unknown>
    2b8c:	67 72 77 72 	72777267       r23.h = #29287
    2b90:	87 72 97 72 	72977287     <unknown>
    2b94:	a7 72 b7 72 	72b772a7       r23.h = #45735
    2b98:	c7 72 d7 72 	72d772c7     <unknown>
    2b9c:	e7 72 f7 72 	72f772e7       r23.h = #62183
    2ba0:	07 73 17 73 	73177307       r8:7 = combine (r23, #-104)
    2ba4:	27 73 37 73 	73377327       r8:7 = combine (#-103, r23)
    2ba8:	47 73 57 73 	73577347       r7 = cmp.eq (r23, #-102)
    2bac:	67 73 77 73 	73777367       r7 = !cmp.eq (r23, #-101)
    2bb0:	87 73 97 73 	73977387       r8:7 = combine (r23, #-100)
    2bb4:	a7 73 b7 73 	73b773a7       r8:7 = combine (#-99, r23)
    2bb8:	c7 73 d7 73 	73d773c7       r7 = cmp.eq (r23, #-98)
    2bbc:	e7 73 f7 73 	73f773e7       r7 = !cmp.eq (r23, #-97)
    2bc0:	07 74 17 74 	74177407       if (p0.new) r7 = add (r23, #-96)
    2bc4:	27 74 37 74 	74377427       if (p1.new) r7 = add (r23, #-95)
    2bc8:	47 74 57 74 	74577447       if (p2.new) r7 = add (r23, #-94)
    2bcc:	67 74 77 74 	74777467       if (p3.new) r7 = add (r23, #-93)
    2bd0:	87 74 97 74 	74977487       if !p0.new r7 = add (r23, #-92)
    2bd4:	a7 74 b7 74 	74b774a7       if !p1.new r7 = add (r23, #-91)
    2bd8:	c7 74 d7 74 	74d774c7       if !p2.new r7 = add (r23, #-90)
    2bdc:	e7 74 f7 74 	74f774e7       if !p3.new r7 = add (r23, #-89)
    2be0:	07 75 17 75 	75177507     <unknown>
    2be4:	27 75 37 75 	75377527     <unknown>
    2be8:	47 75 57 75 	75577547     <unknown>
    2bec:	67 75 77 75 	75777567     <unknown>
    2bf0:	87 75 97 75 	75977587     <unknown>
    2bf4:	a7 75 b7 75 	75b775a7     <unknown>
    2bf8:	c7 75 d7 75 	75d775c7     <unknown>
    2bfc:	e7 75 f7 75 	75f775e7     <unknown>
    2c00:	07 76 17 76 	76177607       r7 = and (r23, #432)
    2c04:	27 76 37 76 	76377627       r7 = and (r23, #-79)
    2c08:	47 76 57 76 	76577647       r7 = sub (#434, r23)
    2c0c:	67 76 77 76 	76777667       r7 = sub (#-77, r23)
    2c10:	87 76 97 76 	76977687       r7 = or (r23, #436)
    2c14:	a7 76 b7 76 	76b776a7       r7 = or (r23, #-75)
    2c18:	c7 76 d7 76 	76d776c7     <unknown>
    2c1c:	e7 76 f7 76 	76f776e7     <unknown>
    2c20:	07 77 17 77 	77177707     <unknown>
    2c24:	27 77 37 77 	77377727     <unknown>
    2c28:	47 77 57 77 	77577747     <unknown>
    2c2c:	67 77 77 77 	77777767     <unknown>
    2c30:	87 77 97 77 	77977787     <unknown>
    2c34:	a7 77 b7 77 	77b777a7     <unknown>
    2c38:	c7 77 d7 77 	77d777c7     <unknown>
    2c3c:	e7 77 f7 77 	77f777e7     <unknown>
    2c40:	07 78 17 78 	78177807       r7 = #12224
    2c44:	27 78 37 78 	78377827       r7 = #12225
    2c48:	47 78 57 78 	78577847       r7 = #28610
    2c4c:	67 78 77 78 	78777867       r7 = #28611
    2c50:	87 78 97 78 	78977887       r7 = #-20540
    2c54:	a7 78 b7 78 	78b778a7       r7 = #-20539
    2c58:	c7 78 d7 78 	78d778c7       r7 = #-4154
    2c5c:	e7 78 f7 78 	78f778e7       r7 = #-4153
    2c60:	07 79 17 79 	79177907     <unknown>
    2c64:	27 79 37 79 	79377927     <unknown>
    2c68:	47 79 57 79 	79577947     <unknown>
    2c6c:	67 79 77 79 	79777967     <unknown>
    2c70:	87 79 97 79 	79977987     <unknown>
    2c74:	a7 79 b7 79 	79b779a7     <unknown>
    2c78:	c7 79 d7 79 	79d779c7     <unknown>
    2c7c:	e7 79 f7 79 	79f779e7     <unknown>
    2c80:	07 7a 17 7a 	7a177a07       r7 = mux (p0, #-48, #47)
    2c84:	27 7a 37 7a 	7a377a27       r7 = mux (p0, #-47, #111)
    2c88:	47 7a 57 7a 	7a577a47       r7 = mux (p0, #-46, #-81)
    2c8c:	67 7a 77 7a 	7a777a67       r7 = mux (p0, #-45, #-17)
    2c90:	87 7a 97 7a 	7a977a87       r7 = mux (p1, #-44, #47)
    2c94:	a7 7a b7 7a 	7ab77aa7       r7 = mux (p1, #-43, #111)
    2c98:	c7 7a d7 7a 	7ad77ac7       r7 = mux (p1, #-42, #-81)
    2c9c:	e7 7a f7 7a 	7af77ae7       r7 = mux (p1, #-41, #-17)
    2ca0:	07 7b 17 7b 	7b177b07       r7 = mux (p2, #-40, #47)
    2ca4:	27 7b 37 7b 	7b377b27       r7 = mux (p2, #-39, #111)
    2ca8:	47 7b 57 7b 	7b577b47       r7 = mux (p2, #-38, #-81)
    2cac:	67 7b 77 7b 	7b777b67       r7 = mux (p2, #-37, #-17)
    2cb0:	87 7b 97 7b 	7b977b87       r7 = mux (p3, #-36, #47)
    2cb4:	a7 7b b7 7b 	7bb77ba7       r7 = mux (p3, #-35, #111)
    2cb8:	c7 7b d7 7b 	7bd77bc7       r7 = mux (p3, #-34, #-81)
    2cbc:	e7 7b f7 7b 	7bf77be7       r7 = mux (p3, #-33, #-17)
    2cc0:	07 7c 17 7c 	7c177c07       r8:7 = combine (#-32, #47)
    2cc4:	27 7c 37 7c 	7c377c27       r8:7 = combine (#-31, #111)
    2cc8:	47 7c 57 7c 	7c577c47       r8:7 = combine (#-30, #-81)
    2ccc:	67 7c 77 7c 	7c777c67       r8:7 = combine (#-29, #-17)
    2cd0:	87 7c 97 7c 	7c977c87       r8:7 = combine (#-28, #47)
    2cd4:	a7 7c b7 7c 	7cb77ca7       r8:7 = combine (#-27, #47)
    2cd8:	c7 7c d7 7c 	7cd77cc7       r8:7 = combine (#-26, #47)
    2cdc:	e7 7c f7 7c 	7cf77ce7       r8:7 = combine (#-25, #47)
    2ce0:	07 7d 17 7d 	7d177d07     <unknown>
    2ce4:	27 7d 37 7d 	7d377d27     <unknown>
    2ce8:	47 7d 57 7d 	7d577d47     <unknown>
    2cec:	67 7d 77 7d 	7d777d67     <unknown>
    2cf0:	87 7d 97 7d 	7d977d87     <unknown>
    2cf4:	a7 7d b7 7d 	7db77da7     <unknown>
    2cf8:	c7 7d d7 7d 	7dd77dc7     <unknown>
    2cfc:	e7 7d f7 7d 	7df77de7     <unknown>
    2d00:	07 7e 17 7e 	7e177e07     <unknown>
    2d04:	27 7e 37 7e 	7e377e27     <unknown>
    2d08:	47 7e 57 7e 	7e577e47     <unknown>
    2d0c:	67 7e 77 7e 	7e777e67     <unknown>
    2d10:	87 7e 97 7e 	7e977e87     <unknown>
    2d14:	a7 7e b7 7e 	7eb77ea7     <unknown>
    2d18:	c7 7e d7 7e 	7ed77ec7     <unknown>
    2d1c:	e7 7e f7 7e 	7ef77ee7     <unknown>
    2d20:	07 7f 17 7f 	7f177f07       nop
    2d24:	27 7f 37 7f 	7f377f27       nop
    2d28:	47 7f 57 7f 	7f577f47       nop
    2d2c:	67 7f 77 7f 	7f777f67       nop
    2d30:	87 7f 97 7f 	7f977f87       nop
    2d34:	a7 7f b7 7f 	7fb77fa7       nop
    2d38:	c7 7f d7 7f 	7fd77fc7       nop
    2d3c:	e7 7f f7 7f 	7ff77fe7       nop
    2d40:	07 80 17 80 	80178007       r8:7 = asr (r24:23, #0)
    2d44:	27 80 37 80 	80378027     <unknown>
    2d48:	47 80 57 80 	80578047       r8:7 = vaslw (r24:23, #0)
    2d4c:	67 80 77 80 	80778067     <unknown>
    2d50:	87 80 97 80 	80978087       r8:7 = not (r24:23)
    2d54:	a7 80 b7 80 	80b780a7     <unknown>
    2d58:	c7 80 d7 80 	80d780c7       r8:7 = brev (r24:23)
    2d5c:	e7 80 f7 80 	80f780e7       r8:7 = convert_df2ud (r24:23):chop
    2d60:	07 81 17 81 	81178107       r8:7 = extractu (r24:23, #1, #0)
    2d64:	27 81 37 81 	81378127       r8:7 = extractu (r24:23, #1, #9)
    2d68:	47 81 57 81 	81578147       r8:7 = extractu (r24:23, #1, #18)
    2d6c:	67 81 77 81 	81778167       r8:7 = extractu (r24:23, #1, #27)
    2d70:	87 81 97 81 	81978187       r8:7 = extractu (r24:23, #1, #36)
    2d74:	a7 81 b7 81 	81b781a7       r8:7 = extractu (r24:23, #1, #45)
    2d78:	c7 81 d7 81 	81d781c7       r8:7 = extractu (r24:23, #1, #54)
    2d7c:	e7 81 f7 81 	81f781e7       r8:7 = extractu (r24:23, #1, #63)
    2d80:	07 82 17 82 	82178207       r8:7 -= asr (r24:23, #2)
    2d84:	27 82 37 82 	82378227       r8:7 -= lsr (r24:23, #2)
    2d88:	47 82 57 82 	82578247       r8:7 &= asl (r24:23, #2)
    2d8c:	67 82 77 82 	82778267     <unknown>
    2d90:	87 82 97 82 	82978287     <unknown>
    2d94:	a7 82 b7 82 	82b782a7     <unknown>
    2d98:	c7 82 d7 82 	82d782c7     <unknown>
    2d9c:	e7 82 f7 82 	82f782e7     <unknown>
    2da0:	07 83 17 83 	83178307       r8:7 = insert (r24:23, #3, #0)
    2da4:	27 83 37 83 	83378327       r8:7 = insert (r24:23, #3, #9)
    2da8:	47 83 57 83 	83578347       r8:7 = insert (r24:23, #3, #18)
    2dac:	67 83 77 83 	83778367       r8:7 = insert (r24:23, #3, #27)
    2db0:	87 83 97 83 	83978387       r8:7 = insert (r24:23, #3, #36)
    2db4:	a7 83 b7 83 	83b783a7       r8:7 = insert (r24:23, #3, #45)
    2db8:	c7 83 d7 83 	83d783c7       r8:7 = insert (r24:23, #3, #54)
    2dbc:	e7 83 f7 83 	83f783e7       r8:7 = insert (r24:23, #3, #63)
    2dc0:	07 84 17 84 	84178407       r8:7 = vsxtbh (r23)
    2dc4:	27 84 37 84 	84378427       r8:7 = vsxtbh (r23)
    2dc8:	47 84 57 84 	84578447       r8:7 = vsplath (r23)
    2dcc:	67 84 77 84 	84778467       r8:7 = vsplath (r23)
    2dd0:	87 84 97 84 	84978487       r8:7 = convert_sf2d (r23)
    2dd4:	a7 84 b7 84 	84b784a7       r8:7 = convert_sf2ud (r23):chop
    2dd8:	c7 84 d7 84 	84d784c7       r8:7 = convert_sf2d (r23):chop
    2ddc:	e7 84 f7 84 	84f784e7     <unknown>
    2de0:	07 85 17 85 	85178507       p3 = tstbit (r23, #5)
    2de4:	27 85 37 85 	85378527       p3 = !tstbit (r23, #5)
    2de8:	47 85 57 85 	85578547       p3 = r23
    2dec:	67 85 77 85 	85778567     <unknown>
    2df0:	87 85 97 85 	85978587       p3 = bitsclr (r23, #5)
    2df4:	a7 85 b7 85 	85b785a7       p3 = !bitsclr (r23, #5)
    2df8:	c7 85 d7 85 	85d785c7     <unknown>
    2dfc:	e7 85 f7 85 	85f785e7       p3 = sfclass (r23, #5)
    2e00:	07 86 17 86 	86178607       r8:7 = mask (p2)
    2e04:	27 86 37 86 	86378627       r8:7 = mask (p2)
    2e08:	47 86 57 86 	86578647       r8:7 = mask (p2)
    2e0c:	67 86 77 86 	86778667       r8:7 = mask (p2)
    2e10:	87 86 97 86 	86978687       r8:7 = mask (p2)
    2e14:	a7 86 b7 86 	86b786a7       r8:7 = mask (p2)
    2e18:	c7 86 d7 86 	86d786c7       r8:7 = mask (p2)
    2e1c:	e7 86 f7 86 	86f786e7       r8:7 = mask (p2)
    2e20:	07 87 17 87 	87178707       r7 = tableidxb (r23, #0, #7):raw
    2e24:	27 87 37 87 	87378727       r7 = tableidxb (r23, #9, #7):raw
    2e28:	47 87 57 87 	87578747       r7 = tableidxh (r23, #2, #7):raw
    2e2c:	67 87 77 87 	87778767       r7 = tableidxh (r23, #11, #7):raw
    2e30:	87 87 97 87 	87978787       r7 = tableidxw (r23, #4, #7):raw
    2e34:	a7 87 b7 87 	87b787a7       r7 = tableidxw (r23, #13, #7):raw
    2e38:	c7 87 d7 87 	87d787c7       r7 = tableidxd (r23, #6, #7):raw
    2e3c:	e7 87 f7 87 	87f787e7       r7 = tableidxd (r23, #15, #7):raw
    2e40:	07 88 17 88 	88178807       r7 = vsathub (r24:23)
    2e44:	27 88 37 88 	88378827       r7 = convert_ud2sf (r24:23)
    2e48:	47 88 57 88 	88578847       r7 = cl0 (r24:23)
    2e4c:	67 88 77 88 	88778867       r7 = popcount (r24:23)
    2e50:	87 88 97 88 	88978887       r7 = vrndwh (r24:23)
    2e54:	a7 88 b7 88 	88b788a7     <unknown>
    2e58:	c7 88 d7 88 	88d788c7     <unknown>
    2e5c:	e7 88 f7 88 	88f788e7     <unknown>
    2e60:	07 89 17 89 	89178907       r7 = vitpack (p3, p1)
    2e64:	27 89 37 89 	89378927     <unknown>
    2e68:	47 89 57 89 	89578947       r7 = p3
    2e6c:	67 89 77 89 	89778967       r7 = p3
    2e70:	87 89 97 89 	89978987       r7 = vitpack (p3, p1)
    2e74:	a7 89 b7 89 	89b789a7     <unknown>
    2e78:	c7 89 d7 89 	89d789c7       r7 = p3
    2e7c:	e7 89 f7 89 	89f789e7       r7 = p3
    2e80:	07 8a 17 8a 	8a178a07       r8:7 = extract (r24:23, #10, #0)
    2e84:	27 8a 37 8a 	8a378a27       r8:7 = extract (r24:23, #10, #9)
    2e88:	47 8a 57 8a 	8a578a47       r8:7 = extract (r24:23, #10, #18)
    2e8c:	67 8a 77 8a 	8a778a67       r8:7 = extract (r24:23, #10, #27)
    2e90:	87 8a 97 8a 	8a978a87       r8:7 = extract (r24:23, #10, #36)
    2e94:	a7 8a b7 8a 	8ab78aa7       r8:7 = extract (r24:23, #10, #45)
    2e98:	c7 8a d7 8a 	8ad78ac7       r8:7 = extract (r24:23, #10, #54)
    2e9c:	e7 8a f7 8a 	8af78ae7       r8:7 = extract (r24:23, #10, #63)
    2ea0:	07 8b 17 8b 	8b178b07     <unknown>
    2ea4:	27 8b 37 8b 	8b378b27     <unknown>
    2ea8:	47 8b 57 8b 	8b578b47     <unknown>
    2eac:	67 8b 77 8b 	8b778b67     <unknown>
    2eb0:	87 8b 97 8b 	8b978b87     <unknown>
    2eb4:	a7 8b b7 8b 	8bb78ba7     <unknown>
    2eb8:	c7 8b d7 8b 	8bd78bc7     <unknown>
    2ebc:	e7 8b f7 8b 	8bf78be7     <unknown>
    2ec0:	07 8c 17 8c 	8c178c07       r7 = asr (r23, #12)
    2ec4:	27 8c 37 8c 	8c378c27     <unknown>
    2ec8:	47 8c 57 8c 	8c578c47       r7 = asl (r23, #12):sat
    2ecc:	67 8c 77 8c 	8c778c67     <unknown>
    2ed0:	87 8c 97 8c 	8c978c87       r7 = abs (r23)
    2ed4:	a7 8c b7 8c 	8cb78ca7     <unknown>
    2ed8:	c7 8c d7 8c 	8cd78cc7       r7 = satub (r23)
    2edc:	e7 8c f7 8c 	8cf78ce7       r7 = round (r23, #12):sat
    2ee0:	07 8d 17 8d 	8d178d07       r7 = extractu (r23, #13, #0)
    2ee4:	27 8d 37 8d 	8d378d27       r7 = extractu (r23, #13, #9)
    2ee8:	47 8d 57 8d 	8d578d47       r7 = extractu (r23, #13, #18)
    2eec:	67 8d 77 8d 	8d778d67       r7 = extractu (r23, #13, #27)
    2ef0:	87 8d 97 8d 	8d978d87       r7 = extract (r23, #13, #4)
    2ef4:	a7 8d b7 8d 	8db78da7       r7 = extract (r23, #13, #13)
    2ef8:	c7 8d d7 8d 	8dd78dc7       r7 = extract (r23, #13, #22)
    2efc:	e7 8d f7 8d 	8df78de7       r7 = extract (r23, #13, #31)
    2f00:	07 8e 17 8e 	8e178e07       r7 -= asr (r23, #14)
    2f04:	27 8e 37 8e 	8e378e27       r7 -= lsr (r23, #14)
    2f08:	47 8e 57 8e 	8e578e47       r7 &= asl (r23, #14)
    2f0c:	67 8e 77 8e 	8e778e67     <unknown>
    2f10:	87 8e 97 8e 	8e978e87     <unknown>
    2f14:	a7 8e b7 8e 	8eb78ea7     <unknown>
    2f18:	c7 8e d7 8e 	8ed78ec7     <unknown>
    2f1c:	e7 8e f7 8e 	8ef78ee7     <unknown>
    2f20:	07 8f 17 8f 	8f178f07       r7 = insert (r23, #15, #0)
    2f24:	27 8f 37 8f 	8f378f27       r7 = insert (r23, #15, #9)
    2f28:	47 8f 57 8f 	8f578f47       r7 = insert (r23, #15, #18)
    2f2c:	67 8f 77 8f 	8f778f67       r7 = insert (r23, #15, #27)
    2f30:	87 8f 97 8f 	8f978f87     <unknown>
    2f34:	a7 8f b7 8f 	8fb78fa7     <unknown>
    2f38:	c7 8f d7 8f 	8fd78fc7     <unknown>
    2f3c:	e7 8f f7 8f 	8ff78fe7     <unknown>
    2f40:	07 90 17 90 	90179007     <unknown>
    2f44:	27 90 37 90 	90379027       r7 = membh (r23 + #258)
    2f48:	47 90 57 90 	90579047       r8:7 = memh_fifo (r23 + #260)
    2f4c:	67 90 77 90 	90779067       r7 = memubh (r23 + #262)
    2f50:	87 90 97 90 	90979087       r8:7 = memb_fifo (r23 + #132)
    2f54:	a7 90 b7 90 	90b790a7       r8:7 = memubh (r23 + #532)
    2f58:	c7 90 d7 90 	90d790c7     <unknown>
    2f5c:	e7 90 f7 90 	90f790e7       r8:7 = membh (r23 + #540)
    2f60:	07 91 17 91 	91179107       r7 = memb (r23 + #136)
    2f64:	27 91 37 91 	91379127       r7 = memub (r23 + #137)
    2f68:	47 91 57 91 	91579147       r7 = memh (r23 + #276)
    2f6c:	67 91 77 91 	91779167       r7 = memuh (r23 + #278)
    2f70:	87 91 97 91 	91979187       r7 = memw (r23 + #560)
    2f74:	a7 91 b7 91 	91b791a7     <unknown>
    2f78:	c7 91 d7 91 	91d791c7       r8:7 = memd (r23 + #1136)
    2f7c:	e7 91 f7 91 	91f791e7     <unknown>
    2f80:	07 92 17 92 	92179207       r8:7 = memd_locked (r23)
    2f84:	27 92 37 92 	92379227       r7 = membh (r23 + #1314)
    2f88:	47 92 57 92 	92579247       r8:7 = memh_fifo (r23 + #1316)
    2f8c:	67 92 77 92 	92779267       r7 = memubh (r23 + #1318)
    2f90:	87 92 97 92 	92979287       r8:7 = memb_fifo (r23 + #660)
    2f94:	a7 92 b7 92 	92b792a7       r8:7 = memubh (r23 + #2644)
    2f98:	c7 92 d7 92 	92d792c7     <unknown>
    2f9c:	e7 92 f7 92 	92f792e7       r8:7 = membh (r23 + #2652)
    2fa0:	07 93 17 93 	93179307       r7 = memb (r23 + #664)
    2fa4:	27 93 37 93 	93379327       r7 = memub (r23 + #665)
    2fa8:	47 93 57 93 	93579347       r7 = memh (r23 + #1332)
    2fac:	67 93 77 93 	93779367       r7 = memuh (r23 + #1334)
    2fb0:	87 93 97 93 	93979387       r7 = memw (r23 + #2672)
    2fb4:	a7 93 b7 93 	93b793a7     <unknown>
    2fb8:	c7 93 d7 93 	93d793c7       r8:7 = memd (r23 + #5360)
    2fbc:	e7 93 f7 93 	93f793e7     <unknown>
    2fc0:	07 94 17 94 	94179407       dcfetch (r23 + #8248)
    2fc4:	27 94 37 94 	94379427       r7 = membh (r23 + #-1726)
    2fc8:	47 94 57 94 	94579447       r8:7 = memh_fifo (r23 + #-1724)
    2fcc:	67 94 77 94 	94779467       r7 = memubh (r23 + #-1722)
    2fd0:	87 94 97 94 	94979487       r8:7 = memb_fifo (r23 + #-860)
    2fd4:	a7 94 b7 94 	94b794a7       r8:7 = memubh (r23 + #-3436)
    2fd8:	c7 94 d7 94 	94d794c7     <unknown>
    2fdc:	e7 94 f7 94 	94f794e7       r8:7 = membh (r23 + #-3428)
    2fe0:	07 95 17 95 	95179507       r7 = memb (r23 + #-856)
    2fe4:	27 95 37 95 	95379527       r7 = memub (r23 + #-855)
    2fe8:	47 95 57 95 	95579547       r7 = memh (r23 + #-1708)
    2fec:	67 95 77 95 	95779567       r7 = memuh (r23 + #-1706)
    2ff0:	87 95 97 95 	95979587       r7 = memw (r23 + #-3408)
    2ff4:	a7 95 b7 95 	95b795a7     <unknown>
    2ff8:	c7 95 d7 95 	95d795c7       r8:7 = memd (r23 + #-6800)
    2ffc:	e7 95 f7 95 	95f795e7     <unknown>
    3000:	07 96 17 96 	96179607     <unknown>
    3004:	27 96 37 96 	96379627       r7 = membh (r23 + #-670)
    3008:	47 96 57 96 	96579647       r8:7 = memh_fifo (r23 + #-668)
    300c:	67 96 77 96 	96779667       r7 = memubh (r23 + #-666)
    3010:	87 96 97 96 	96979687       r8:7 = memb_fifo (r23 + #-332)
    3014:	a7 96 b7 96 	96b796a7       r8:7 = memubh (r23 + #-1324)
    3018:	c7 96 d7 96 	96d796c7     <unknown>
    301c:	e7 96 f7 96 	96f796e7       r8:7 = membh (r23 + #-1316)
    3020:	07 97 17 97 	97179707       r7 = memb (r23 + #-328)
    3024:	27 97 37 97 	97379727       r7 = memub (r23 + #-327)
    3028:	47 97 57 97 	97579747       r7 = memh (r23 + #-652)
    302c:	67 97 77 97 	97779767       r7 = memuh (r23 + #-650)
    3030:	87 97 97 97 	97979787       r7 = memw (r23 + #-1296)
    3034:	a7 97 b7 97 	97b797a7     <unknown>
    3038:	c7 97 d7 97 	97d797c7       r8:7 = memd (r23 + #-2576)
    303c:	e7 97 f7 97 	97f797e7     <unknown>
    3040:	07 98 17 98 	98179807     <unknown>
    3044:	27 98 37 98 	98379827     <unknown>
    3048:	47 98 57 98 	98579847     <unknown>
    304c:	67 98 77 98 	98779867     <unknown>
    3050:	87 98 97 98 	98979887     <unknown>
    3054:	a7 98 b7 98 	98b798a7     <unknown>
    3058:	c7 98 d7 98 	98d798c7     <unknown>
    305c:	e7 98 f7 98 	98f798e7     <unknown>
    3060:	07 99 17 99 	99179907     <unknown>
    3064:	27 99 37 99 	99379927     <unknown>
    3068:	47 99 57 99 	99579947     <unknown>
    306c:	67 99 77 99 	99779967     <unknown>
    3070:	87 99 97 99 	99979987     <unknown>
    3074:	a7 99 b7 99 	99b799a7     <unknown>
    3078:	c7 99 d7 99 	99d799c7     <unknown>
    307c:	e7 99 f7 99 	99f799e7     <unknown>
    3080:	07 9a 17 9a 	9a179a07     <unknown>
    3084:	27 9a 37 9a 	9a379a27       r7 = membh (r23 = #41)
    3088:	47 9a 57 9a 	9a579a47       r8:7 = memh_fifo (r23 = #42)
    308c:	67 9a 77 9a 	9a779a67       r7 = memubh (r23 = #43)
    3090:	87 9a 97 9a 	9a979a87       r8:7 = memb_fifo (r23 = #40)
    3094:	a7 9a b7 9a 	9ab79aa7       r8:7 = memubh (r23 = #41)
    3098:	c7 9a d7 9a 	9ad79ac7     <unknown>
    309c:	e7 9a f7 9a 	9af79ae7       r8:7 = membh (r23 = #43)
    30a0:	07 9b 17 9b 	9b179b07       r7 = memb (r23 = #44)
    30a4:	27 9b 37 9b 	9b379b27       r7 = memub (r23 = #45)
    30a8:	47 9b 57 9b 	9b579b47       r7 = memh (r23 = #46)
    30ac:	67 9b 77 9b 	9b779b67       r7 = memuh (r23 = #47)
    30b0:	87 9b 97 9b 	9b979b87       r7 = memw (r23 = #44)
    30b4:	a7 9b b7 9b 	9bb79ba7     <unknown>
    30b8:	c7 9b d7 9b 	9bd79bc7       r8:7 = memd (r23 = #46)
    30bc:	e7 9b f7 9b 	9bf79be7     <unknown>
    30c0:	07 9c 17 9c 	9c179c07     <unknown>
    30c4:	27 9c 37 9c 	9c379c27       r7 = membh (r23 << #0 + #49)
    30c8:	47 9c 57 9c 	9c579c47       r8:7 = memh_fifo (r23 << #0 + #50)
    30cc:	67 9c 77 9c 	9c779c67       r7 = memubh (r23 << #0 + #51)
    30d0:	87 9c 97 9c 	9c979c87       r8:7 = memb_fifo (r23 << #1 + #48)
    30d4:	a7 9c b7 9c 	9cb79ca7       r8:7 = memubh (r23 << #1 + #49)
    30d8:	c7 9c d7 9c 	9cd79cc7     <unknown>
    30dc:	e7 9c f7 9c 	9cf79ce7       r8:7 = membh (r23 << #1 + #51)
    30e0:	07 9d 17 9d 	9d179d07       r7 = memb (r23 << #0 + #52)
    30e4:	27 9d 37 9d 	9d379d27       r7 = memub (r23 << #0 + #53)
    30e8:	47 9d 57 9d 	9d579d47       r7 = memh (r23 << #0 + #54)
    30ec:	67 9d 77 9d 	9d779d67       r7 = memuh (r23 << #0 + #55)
    30f0:	87 9d 97 9d 	9d979d87       r7 = memw (r23 << #1 + #52)
    30f4:	a7 9d b7 9d 	9db79da7     <unknown>
    30f8:	c7 9d d7 9d 	9dd79dc7       r8:7 = memd (r23 << #1 + #54)
    30fc:	e7 9d f7 9d 	9df79de7     <unknown>
    3100:	07 9e 17 9e 	9e179e07     <unknown>
    3104:	27 9e 37 9e 	9e379e27     <unknown>
    3108:	47 9e 57 9e 	9e579e47     <unknown>
    310c:	67 9e 77 9e 	9e779e67     <unknown>
    3110:	87 9e 97 9e 	9e979e87     <unknown>
    3114:	a7 9e b7 9e 	9eb79ea7     <unknown>
    3118:	c7 9e d7 9e 	9ed79ec7     <unknown>
    311c:	e7 9e f7 9e 	9ef79ee7     <unknown>
    3120:	07 9f 17 9f 	9f179f07     <unknown>
    3124:	27 9f 37 9f 	9f379f27     <unknown>
    3128:	47 9f 57 9f 	9f579f47     <unknown>
    312c:	67 9f 77 9f 	9f779f67     <unknown>
    3130:	87 9f 97 9f 	9f979f87     <unknown>
    3134:	a7 9f b7 9f 	9fb79fa7     <unknown>
    3138:	c7 9f d7 9f 	9fd79fc7     <unknown>
    313c:	e7 9f f7 9f 	9ff79fe7     <unknown>
    3140:	07 a0 17 a0 	a017a007       dccleana (r23)
    3144:	27 a0 37 a0 	a037a027       dcinva (r23)
    3148:	47 a0 57 a0 	a057a047       dccleaninva (r23)
    314c:	67 a0 77 a0 	a077a067     <unknown>
    3150:	87 a0 97 a0 	a097a087     <unknown>
    3154:	a7 a0 b7 a0 	a0b7a0a7       memw_locked (r23, p3) = r0
    3158:	c7 a0 d7 a0 	a0d7a0c7     <unknown>
    315c:	e7 a0 f7 a0 	a0f7a0e7       memd_locked (r23, p3) = r1:0
    3160:	07 a1 17 a1 	a117a107       memb (r23 + #263) = r1
    3164:	27 a1 37 a1 	a137a127     <unknown>
    3168:	47 a1 57 a1 	a157a147       memh (r23 + #654) = r1
    316c:	67 a1 77 a1 	a177a167       memh (r23 + #718) = r1.h
    3170:	87 a1 97 a1 	a197a187       memw (r23 + #1564) = r1
    3174:	a7 a1 b7 a1 	a1b7a1a7       memb (r23 + #423) = r7.new
    3178:	c7 a1 d7 a1 	a1d7a1c7       memd (r23 + #3640) = r2:1
    317c:	e7 a1 f7 a1 	a1f7a1e7     <unknown>
    3180:	07 a2 17 a2 	a217a207       dckill
    3184:	27 a2 37 a2 	a237a227       dccleanidx (r23)
    3188:	47 a2 57 a2 	a257a247       dcinvidx (r23)
    318c:	67 a2 77 a2 	a277a267       dccleaninvidx (r23)
    3190:	87 a2 97 a2 	a297a287     <unknown>
    3194:	a7 a2 b7 a2 	a2b7a2a7     <unknown>
    3198:	c7 a2 d7 a2 	a2d7a2c7     <unknown>
    319c:	e7 a2 f7 a2 	a2f7a2e7     <unknown>
    31a0:	07 a3 17 a3 	a317a307       memb (r23 + #775) = r3
    31a4:	27 a3 37 a3 	a337a327     <unknown>
    31a8:	47 a3 57 a3 	a357a347       memh (r23 + #1678) = r3
    31ac:	67 a3 77 a3 	a377a367       memh (r23 + #1742) = r3.h
    31b0:	87 a3 97 a3 	a397a387       memw (r23 + #3612) = r3
    31b4:	a7 a3 b7 a3 	a3b7a3a7       memb (r23 + #935) = r7.new
    31b8:	c7 a3 d7 a3 	a3d7a3c7       memd (r23 + #7736) = r4:3
    31bc:	e7 a3 f7 a3 	a3f7a3e7     <unknown>
    31c0:	07 a4 17 a4 	a417a407       dctagw (r23, r4)
    31c4:	27 a4 37 a4 	a437a427       r7 = dctagr (r23)
    31c8:	47 a4 57 a4 	a457a447     <unknown>
    31cc:	67 a4 77 a4 	a477a467       r7 = l2tagr (r23)
    31d0:	87 a4 97 a4 	a497a487     <unknown>
    31d4:	a7 a4 b7 a4 	a4b7a4a7     <unknown>
    31d8:	c7 a4 d7 a4 	a4d7a4c7     <unknown>
    31dc:	e7 a4 f7 a4 	a4f7a4e7     <unknown>
    31e0:	07 a5 17 a5 	a517a507       memb (r23 + #-761) = r5
    31e4:	27 a5 37 a5 	a537a527     <unknown>
    31e8:	47 a5 57 a5 	a557a547       memh (r23 + #-1394) = r5
    31ec:	67 a5 77 a5 	a577a567       memh (r23 + #-1330) = r5.h
    31f0:	87 a5 97 a5 	a597a587       memw (r23 + #-2532) = r5
    31f4:	a7 a5 b7 a5 	a5b7a5a7       memb (r23 + #-601) = r1.new
    31f8:	c7 a5 d7 a5 	a5d7a5c7       memd (r23 + #-4552) = r6:5
    31fc:	e7 a5 f7 a5 	a5f7a5e7     <unknown>
    3200:	07 a6 17 a6 	a617a607       l2fetch (r23, r6)
    3204:	27 a6 37 a6 	a637a627       l2cleanidx (r23)
    3208:	47 a6 57 a6 	a657a647       l2invidx (r23)
    320c:	67 a6 77 a6 	a677a667     <unknown>
    3210:	87 a6 97 a6 	a697a687       l2fetch (r23, r7:6)
    3214:	a7 a6 b7 a6 	a6b7a6a7     <unknown>
    3218:	c7 a6 d7 a6 	a6d7a6c7     <unknown>
    321c:	e7 a6 f7 a6 	a6f7a6e7     <unknown>
    3220:	07 a7 17 a7 	a717a707       memb (r23 + #-249) = r7
    3224:	27 a7 37 a7 	a737a727     <unknown>
    3228:	47 a7 57 a7 	a757a747       memh (r23 + #-370) = r7
    322c:	67 a7 77 a7 	a777a767       memh (r23 + #-306) = r7.h
    3230:	87 a7 97 a7 	a797a787       memw (r23 + #-484) = r7
    3234:	a7 a7 b7 a7 	a7b7a7a7       memb (r23 + #-89) = r1.new
    3238:	c7 a7 d7 a7 	a7d7a7c7       memd (r23 + #-456) = r8:7
    323c:	e7 a7 f7 a7 	a7f7a7e7     <unknown>
    3240:	07 a8 17 a8 	a817a807       barrier
    3244:	27 a8 37 a8 	a837a827       l2kill
    3248:	47 a8 57 a8 	a857a847       syncht
    324c:	67 a8 77 a8 	a877a867       l2cleaninvidx (r23)
    3250:	87 a8 97 a8 	a897a887     <unknown>
    3254:	a7 a8 b7 a8 	a8b7a8a7     <unknown>
    3258:	c7 a8 d7 a8 	a8d7a8c7     <unknown>
    325c:	e7 a8 f7 a8 	a8f7a8e7     <unknown>
    3260:	07 a9 17 a9 	a917a907       memb (r23 ++I:circ (m1)) = r9
    3264:	27 a9 37 a9 	a937a927     <unknown>
    3268:	47 a9 57 a9 	a957a947       memh (r23 ++I:circ (m1)) = r9
    326c:	67 a9 77 a9 	a977a967       memh (r23 ++I:circ (m1)) = r9.h
    3270:	87 a9 97 a9 	a997a987     <unknown>
    3274:	a7 a9 b7 a9 	a9b7a9a7     <unknown>
    3278:	c7 a9 d7 a9 	a9d7a9c7     <unknown>
    327c:	e7 a9 f7 a9 	a9f7a9e7     <unknown>
    3280:	07 aa 17 aa 	aa17aa07     <unknown>
    3284:	27 aa 37 aa 	aa37aa27     <unknown>
    3288:	47 aa 57 aa 	aa57aa47     <unknown>
    328c:	67 aa 77 aa 	aa77aa67     <unknown>
    3290:	87 aa 97 aa 	aa97aa87     <unknown>
    3294:	a7 aa b7 aa 	aab7aaa7     <unknown>
    3298:	c7 aa d7 aa 	aad7aac7     <unknown>
    329c:	e7 aa f7 aa 	aaf7aae7     <unknown>
    32a0:	07 ab 17 ab 	ab17ab07       if !p3 memb (r23 ++ #0) = r11
    32a4:	27 ab 37 ab 	ab37ab27     <unknown>
    32a8:	47 ab 57 ab 	ab57ab47       if !p3 memh (r23 ++ #-16) = r11
    32ac:	67 ab 77 ab 	ab77ab67       if !p3 memh (r23 ++ #-8) = r11.h
    32b0:	87 ab 97 ab 	ab97ab87       if !p3.new memw (r23 ++ #0) = r11
    32b4:	a7 ab b7 ab 	abb7aba7       if !p3.new memh (r23 ++ #8) = r7.new
    32b8:	c7 ab d7 ab 	abd7abc7       if !p3.new memd (r23 ++ #-64) = r12:11
    32bc:	e7 ab f7 ab 	abf7abe7     <unknown>
    32c0:	07 ac 17 ac 	ac17ac07     <unknown>
    32c4:	27 ac 37 ac 	ac37ac27     <unknown>
    32c8:	47 ac 57 ac 	ac57ac47     <unknown>
    32cc:	67 ac 77 ac 	ac77ac67     <unknown>
    32d0:	87 ac 97 ac 	ac97ac87     <unknown>
    32d4:	a7 ac b7 ac 	acb7aca7     <unknown>
    32d8:	c7 ac d7 ac 	acd7acc7     <unknown>
    32dc:	e7 ac f7 ac 	acf7ace7     <unknown>
    32e0:	07 ad 17 ad 	ad17ad07       memb (r23 ++ m1) = r13
    32e4:	27 ad 37 ad 	ad37ad27     <unknown>
    32e8:	47 ad 57 ad 	ad57ad47       memh (r23 ++ m1) = r13
    32ec:	67 ad 77 ad 	ad77ad67       memh (r23 ++ m1) = r13.h
    32f0:	87 ad 97 ad 	ad97ad87       memw (r23 << #2 + #7) = r13
    32f4:	a7 ad b7 ad 	adb7ada7       memh (r23 << #2 + #39) = r1.new
    32f8:	c7 ad d7 ad 	add7adc7       memd (r23 << #3 + #7) = r14:13
    32fc:	e7 ad f7 ad 	adf7ade7     <unknown>
    3300:	07 ae 17 ae 	ae17ae07     <unknown>
    3304:	27 ae 37 ae 	ae37ae27     <unknown>
    3308:	47 ae 57 ae 	ae57ae47     <unknown>
    330c:	67 ae 77 ae 	ae77ae67     <unknown>
    3310:	87 ae 97 ae 	ae97ae87     <unknown>
    3314:	a7 ae b7 ae 	aeb7aea7     <unknown>
    3318:	c7 ae d7 ae 	aed7aec7     <unknown>
    331c:	e7 ae f7 ae 	aef7aee7     <unknown>
    3320:	07 af 17 af 	af17af07       memb (r23 ++ m1:brev) = r15
    3324:	27 af 37 af 	af37af27     <unknown>
    3328:	47 af 57 af 	af57af47       memh (r23 ++ m1:brev) = r15
    332c:	67 af 77 af 	af77af67       memh (r23 ++ m1:brev) = r15.h
    3330:	87 af 97 af 	af97af87       if !p3.new memw (#48) = r15
    3334:	a7 af b7 af 	afb7afa7       if !p3.new memh (#52) = r1.new
    3338:	c7 af d7 af 	afd7afc7       if !p3.new memd (#56) = r16:15
    333c:	e7 af f7 af 	aff7afe7     <unknown>
    3340:	07 b0 17 b0 	b017b007       r7 = add (r23, #384)
    3344:	27 b0 37 b0 	b037b027       r7 = add (r23, #897)
    3348:	47 b0 57 b0 	b057b047       r7 = add (r23, #1410)
    334c:	67 b0 77 b0 	b077b067       r7 = add (r23, #1923)
    3350:	87 b0 97 b0 	b097b087       r7 = add (r23, #2436)
    3354:	a7 b0 b7 b0 	b0b7b0a7       r7 = add (r23, #2949)
    3358:	c7 b0 d7 b0 	b0d7b0c7       r7 = add (r23, #3462)
    335c:	e7 b0 f7 b0 	b0f7b0e7       r7 = add (r23, #3975)
    3360:	07 b1 17 b1 	b117b107       r7 = add (r23, #4488)
    3364:	27 b1 37 b1 	b137b127       r7 = add (r23, #5001)
    3368:	47 b1 57 b1 	b157b147       r7 = add (r23, #5514)
    336c:	67 b1 77 b1 	b177b167       r7 = add (r23, #6027)
    3370:	87 b1 97 b1 	b197b187       r7 = add (r23, #6540)
    3374:	a7 b1 b7 b1 	b1b7b1a7       r7 = add (r23, #7053)
    3378:	c7 b1 d7 b1 	b1d7b1c7       r7 = add (r23, #7566)
    337c:	e7 b1 f7 b1 	b1f7b1e7       r7 = add (r23, #8079)
    3380:	07 b2 17 b2 	b217b207       r7 = add (r23, #8592)
    3384:	27 b2 37 b2 	b237b227       r7 = add (r23, #9105)
    3388:	47 b2 57 b2 	b257b247       r7 = add (r23, #9618)
    338c:	67 b2 77 b2 	b277b267       r7 = add (r23, #10131)
    3390:	87 b2 97 b2 	b297b287       r7 = add (r23, #10644)
    3394:	a7 b2 b7 b2 	b2b7b2a7       r7 = add (r23, #11157)
    3398:	c7 b2 d7 b2 	b2d7b2c7       r7 = add (r23, #11670)
    339c:	e7 b2 f7 b2 	b2f7b2e7       r7 = add (r23, #12183)
    33a0:	07 b3 17 b3 	b317b307       r7 = add (r23, #12696)
    33a4:	27 b3 37 b3 	b337b327       r7 = add (r23, #13209)
    33a8:	47 b3 57 b3 	b357b347       r7 = add (r23, #13722)
    33ac:	67 b3 77 b3 	b377b367       r7 = add (r23, #14235)
    33b0:	87 b3 97 b3 	b397b387       r7 = add (r23, #14748)
    33b4:	a7 b3 b7 b3 	b3b7b3a7       r7 = add (r23, #15261)
    33b8:	c7 b3 d7 b3 	b3d7b3c7       r7 = add (r23, #15774)
    33bc:	e7 b3 f7 b3 	b3f7b3e7       r7 = add (r23, #16287)
    33c0:	07 b4 17 b4 	b417b407       r7 = add (r23, #16800)
    33c4:	27 b4 37 b4 	b437b427       r7 = add (r23, #17313)
    33c8:	47 b4 57 b4 	b457b447       r7 = add (r23, #17826)
    33cc:	67 b4 77 b4 	b477b467       r7 = add (r23, #18339)
    33d0:	87 b4 97 b4 	b497b487       r7 = add (r23, #18852)
    33d4:	a7 b4 b7 b4 	b4b7b4a7       r7 = add (r23, #19365)
    33d8:	c7 b4 d7 b4 	b4d7b4c7       r7 = add (r23, #19878)
    33dc:	e7 b4 f7 b4 	b4f7b4e7       r7 = add (r23, #20391)
    33e0:	07 b5 17 b5 	b517b507       r7 = add (r23, #20904)
    33e4:	27 b5 37 b5 	b537b527       r7 = add (r23, #21417)
    33e8:	47 b5 57 b5 	b557b547       r7 = add (r23, #21930)
    33ec:	67 b5 77 b5 	b577b567       r7 = add (r23, #22443)
    33f0:	87 b5 97 b5 	b597b587       r7 = add (r23, #22956)
    33f4:	a7 b5 b7 b5 	b5b7b5a7       r7 = add (r23, #23469)
    33f8:	c7 b5 d7 b5 	b5d7b5c7       r7 = add (r23, #23982)
    33fc:	e7 b5 f7 b5 	b5f7b5e7       r7 = add (r23, #24495)
    3400:	07 b6 17 b6 	b617b607       r7 = add (r23, #25008)
    3404:	27 b6 37 b6 	b637b627       r7 = add (r23, #25521)
    3408:	47 b6 57 b6 	b657b647       r7 = add (r23, #26034)
    340c:	67 b6 77 b6 	b677b667       r7 = add (r23, #26547)
    3410:	87 b6 97 b6 	b697b687       r7 = add (r23, #27060)
    3414:	a7 b6 b7 b6 	b6b7b6a7       r7 = add (r23, #27573)
    3418:	c7 b6 d7 b6 	b6d7b6c7       r7 = add (r23, #28086)
    341c:	e7 b6 f7 b6 	b6f7b6e7       r7 = add (r23, #28599)
    3420:	07 b7 17 b7 	b717b707       r7 = add (r23, #29112)
    3424:	27 b7 37 b7 	b737b727       r7 = add (r23, #29625)
    3428:	47 b7 57 b7 	b757b747       r7 = add (r23, #30138)
    342c:	67 b7 77 b7 	b777b767       r7 = add (r23, #30651)
    3430:	87 b7 97 b7 	b797b787       r7 = add (r23, #31164)
    3434:	a7 b7 b7 b7 	b7b7b7a7       r7 = add (r23, #31677)
    3438:	c7 b7 d7 b7 	b7d7b7c7       r7 = add (r23, #32190)
    343c:	e7 b7 f7 b7 	b7f7b7e7       r7 = add (r23, #32703)
    3440:	07 b8 17 b8 	b817b807       r7 = add (r23, #-32320)
    3444:	27 b8 37 b8 	b837b827       r7 = add (r23, #-31807)
    3448:	47 b8 57 b8 	b857b847       r7 = add (r23, #-31294)
    344c:	67 b8 77 b8 	b877b867       r7 = add (r23, #-30781)
    3450:	87 b8 97 b8 	b897b887       r7 = add (r23, #-30268)
    3454:	a7 b8 b7 b8 	b8b7b8a7       r7 = add (r23, #-29755)
    3458:	c7 b8 d7 b8 	b8d7b8c7       r7 = add (r23, #-29242)
    345c:	e7 b8 f7 b8 	b8f7b8e7       r7 = add (r23, #-28729)
    3460:	07 b9 17 b9 	b917b907       r7 = add (r23, #-28216)
    3464:	27 b9 37 b9 	b937b927       r7 = add (r23, #-27703)
    3468:	47 b9 57 b9 	b957b947       r7 = add (r23, #-27190)
    346c:	67 b9 77 b9 	b977b967       r7 = add (r23, #-26677)
    3470:	87 b9 97 b9 	b997b987       r7 = add (r23, #-26164)
    3474:	a7 b9 b7 b9 	b9b7b9a7       r7 = add (r23, #-25651)
    3478:	c7 b9 d7 b9 	b9d7b9c7       r7 = add (r23, #-25138)
    347c:	e7 b9 f7 b9 	b9f7b9e7       r7 = add (r23, #-24625)
    3480:	07 ba 17 ba 	ba17ba07       r7 = add (r23, #-24112)
    3484:	27 ba 37 ba 	ba37ba27       r7 = add (r23, #-23599)
    3488:	47 ba 57 ba 	ba57ba47       r7 = add (r23, #-23086)
    348c:	67 ba 77 ba 	ba77ba67       r7 = add (r23, #-22573)
    3490:	87 ba 97 ba 	ba97ba87       r7 = add (r23, #-22060)
    3494:	a7 ba b7 ba 	bab7baa7       r7 = add (r23, #-21547)
    3498:	c7 ba d7 ba 	bad7bac7       r7 = add (r23, #-21034)
    349c:	e7 ba f7 ba 	baf7bae7       r7 = add (r23, #-20521)
    34a0:	07 bb 17 bb 	bb17bb07       r7 = add (r23, #-20008)
    34a4:	27 bb 37 bb 	bb37bb27       r7 = add (r23, #-19495)
    34a8:	47 bb 57 bb 	bb57bb47       r7 = add (r23, #-18982)
    34ac:	67 bb 77 bb 	bb77bb67       r7 = add (r23, #-18469)
    34b0:	87 bb 97 bb 	bb97bb87       r7 = add (r23, #-17956)
    34b4:	a7 bb b7 bb 	bbb7bba7       r7 = add (r23, #-17443)
    34b8:	c7 bb d7 bb 	bbd7bbc7       r7 = add (r23, #-16930)
    34bc:	e7 bb f7 bb 	bbf7bbe7       r7 = add (r23, #-16417)
    34c0:	07 bc 17 bc 	bc17bc07       r7 = add (r23, #-15904)
    34c4:	27 bc 37 bc 	bc37bc27       r7 = add (r23, #-15391)
    34c8:	47 bc 57 bc 	bc57bc47       r7 = add (r23, #-14878)
    34cc:	67 bc 77 bc 	bc77bc67       r7 = add (r23, #-14365)
    34d0:	87 bc 97 bc 	bc97bc87       r7 = add (r23, #-13852)
    34d4:	a7 bc b7 bc 	bcb7bca7       r7 = add (r23, #-13339)
    34d8:	c7 bc d7 bc 	bcd7bcc7       r7 = add (r23, #-12826)
    34dc:	e7 bc f7 bc 	bcf7bce7       r7 = add (r23, #-12313)
    34e0:	07 bd 17 bd 	bd17bd07       r7 = add (r23, #-11800)
    34e4:	27 bd 37 bd 	bd37bd27       r7 = add (r23, #-11287)
    34e8:	47 bd 57 bd 	bd57bd47       r7 = add (r23, #-10774)
    34ec:	67 bd 77 bd 	bd77bd67       r7 = add (r23, #-10261)
    34f0:	87 bd 97 bd 	bd97bd87       r7 = add (r23, #-9748)
    34f4:	a7 bd b7 bd 	bdb7bda7       r7 = add (r23, #-9235)
    34f8:	c7 bd d7 bd 	bdd7bdc7       r7 = add (r23, #-8722)
    34fc:	e7 bd f7 bd 	bdf7bde7       r7 = add (r23, #-8209)
    3500:	07 be 17 be 	be17be07       r7 = add (r23, #-7696)
    3504:	27 be 37 be 	be37be27       r7 = add (r23, #-7183)
    3508:	47 be 57 be 	be57be47       r7 = add (r23, #-6670)
    350c:	67 be 77 be 	be77be67       r7 = add (r23, #-6157)
    3510:	87 be 97 be 	be97be87       r7 = add (r23, #-5644)
    3514:	a7 be b7 be 	beb7bea7       r7 = add (r23, #-5131)
    3518:	c7 be d7 be 	bed7bec7       r7 = add (r23, #-4618)
    351c:	e7 be f7 be 	bef7bee7       r7 = add (r23, #-4105)
    3520:	07 bf 17 bf 	bf17bf07       r7 = add (r23, #-3592)
    3524:	27 bf 37 bf 	bf37bf27       r7 = add (r23, #-3079)
    3528:	47 bf 57 bf 	bf57bf47       r7 = add (r23, #-2566)
    352c:	67 bf 77 bf 	bf77bf67       r7 = add (r23, #-2053)
    3530:	87 bf 97 bf 	bf97bf87       r7 = add (r23, #-1540)
    3534:	a7 bf b7 bf 	bfb7bfa7       r7 = add (r23, #-1027)
    3538:	c7 bf d7 bf 	bfd7bfc7       r7 = add (r23, #-514)
    353c:	e7 bf f7 bf 	bff7bfe7       r7 = add (r23, #-1)
    3540:	07 c0 17 c0 	c017c007       r8:7 = valignb (r1:0, r24:23, #0) }
    3544:	27 c0 37 c0 	c037c027     r8:7 = valignb (r1:0, r24:23, #1)
    3548:	47 c0 57 c0 	c057c047     r8:7 = valignb (r1:0, r24:23, #2)
    354c:	67 c0 77 c0 	c077c067     r8:7 = valignb (r1:0, r24:23, #3)
    3550:	87 c0 97 c0 	c097c087     r8:7 = vspliceb (r24:23, r1:0, #4)
    3554:	a7 c0 b7 c0 	c0b7c0a7     r8:7 = vspliceb (r24:23, r1:0, #5)
    3558:	c7 c0 d7 c0 	c0d7c0c7     r8:7 = vspliceb (r24:23, r1:0, #6)
    355c:	e7 c0 f7 c0 	c0f7c0e7     r8:7 = vspliceb (r24:23, r1:0, #7)
    3560:	07 c1 17 c1 	c117c107     r8:7 = extractu (r24:23, r2:1)
    3564:	27 c1 37 c1 	c137c127     r8:7 = extractu (r24:23, r2:1)
    3568:	47 c1 57 c1 	c157c147     r8:7 = vxsubaddw (r24:23, r2:1):sat
    356c:	67 c1 77 c1 	c177c167     <unknown>
    3570:	87 c1 97 c1 	c197c187     r8:7 = vtrunowh (r24:23, r2:1)
    3574:	a7 c1 b7 c1 	c1b7c1a7     r8:7 = vtrunowh (r24:23, r2:1)
    3578:	c7 c1 d7 c1 	c1d7c1c7     r8:7 = decbin (r24:23, r2:1)
    357c:	e7 c1 f7 c1 	c1f7c1e7     r8:7 = decbin (r24:23, r2:1)
    3580:	07 c2 17 c2 	c217c207     r8:7 = valignb (r3:2, r24:23, p0)
    3584:	27 c2 37 c2 	c237c227     r8:7 = valignb (r3:2, r24:23, p1)
    3588:	47 c2 57 c2 	c257c247     r8:7 = valignb (r3:2, r24:23, p2)
    358c:	67 c2 77 c2 	c277c267     r8:7 = valignb (r3:2, r24:23, p3)
    3590:	87 c2 97 c2 	c297c287     r8:7 = vspliceb (r24:23, r3:2, p0)
    3594:	a7 c2 b7 c2 	c2b7c2a7     r8:7 = vspliceb (r24:23, r3:2, p1)
    3598:	c7 c2 d7 c2 	c2d7c2c7     r8:7 = add (r24:23, r3:2, p2):carry
    359c:	e7 c2 f7 c2 	c2f7c2e7     r8:7 = sub (r24:23, r3:2, p3):carry
    35a0:	07 c3 17 c3 	c317c307     r8:7 = vasrw (r24:23, r3)
    35a4:	27 c3 37 c3 	c337c327     r8:7 = vasrw (r24:23, r3)
    35a8:	47 c3 57 c3 	c357c347     r8:7 = vlsrh (r24:23, r3)
    35ac:	67 c3 77 c3 	c377c367     r8:7 = vlsrh (r24:23, r3)
    35b0:	87 c3 97 c3 	c397c387     r8:7 = asl (r24:23, r3)
    35b4:	a7 c3 b7 c3 	c3b7c3a7     r8:7 = asl (r24:23, r3)
    35b8:	c7 c3 d7 c3 	c3d7c3c7     r8:7 = vrcrotate (r24:23, r3, #0)
    35bc:	e7 c3 f7 c3 	c3f7c3e7     r8:7 = vrcrotate (r24:23, r3, #1)
    35c0:	07 c4 17 c4 	c417c407     r7 = addasl (r4, r23, #0)
    35c4:	27 c4 37 c4 	c437c427     <unknown>
    35c8:	47 c4 57 c4 	c457c447     <unknown>
    35cc:	67 c4 77 c4 	c477c467     <unknown>
    35d0:	87 c4 97 c4 	c497c487     <unknown>
    35d4:	a7 c4 b7 c4 	c4b7c4a7     <unknown>
    35d8:	c7 c4 d7 c4 	c4d7c4c7     <unknown>
    35dc:	e7 c4 f7 c4 	c4f7c4e7     <unknown>
    35e0:	07 c5 17 c5 	c517c507     <unknown>
    35e4:	27 c5 37 c5 	c537c527     <unknown>
    35e8:	47 c5 57 c5 	c557c547     r7 = vasrw (r24:23, r5)
    35ec:	67 c5 77 c5 	c577c567     r7 = vasrw (r24:23, r5)
    35f0:	87 c5 97 c5 	c597c587     r7 = cmpyiwh (r24:23, r5):<<1:rnd:sat
    35f4:	a7 c5 b7 c5 	c5b7c5a7     r7 = cmpyiwh (r24:23, r5 *):<<1:rnd:sat
    35f8:	c7 c5 d7 c5 	c5d7c5c7     r7 = cmpyrwh (r24:23, r5):<<1:rnd:sat
    35fc:	e7 c5 f7 c5 	c5f7c5e7     r7 = cmpyrwh (r24:23, r5 *):<<1:rnd:sat
    3600:	07 c6 17 c6 	c617c607     r7 = asr (r23, r6):sat
    3604:	27 c6 37 c6 	c637c627     r7 = asr (r23, r6):sat
    3608:	47 c6 57 c6 	c657c647     r7 = lsr (r23, r6)
    360c:	67 c6 77 c6 	c677c667     r7 = lsr (r23, r6)
    3610:	87 c6 97 c6 	c697c687     r7 = togglebit (r23, r6)
    3614:	a7 c6 b7 c6 	c6b7c6a7     r7 = togglebit (r23, r6)
    3618:	c7 c6 d7 c6 	c6d7c6c7     r7 = round (r23, r6):sat
    361c:	e7 c6 f7 c6 	c6f7c6e7     r7 = round (r23, r6):sat
    3620:	07 c7 17 c7 	c717c707     p3 = tstbit (r23, r7)
    3624:	27 c7 37 c7 	c737c727     p3 = !tstbit (r23, r7)
    3628:	47 c7 57 c7 	c757c747     p3 = bitsset (r23, r7)
    362c:	67 c7 77 c7 	c777c767     p3 = !bitsset (r23, r7)
    3630:	87 c7 97 c7 	c797c787     p3 = bitsclr (r23, r7)
    3634:	a7 c7 b7 c7 	c7b7c7a7     p3 = !bitsclr (r23, r7)
    3638:	c7 c7 d7 c7 	c7d7c7c7     p3 = cmpb.eq (r23, r7)
    363c:	e7 c7 f7 c7 	c7f7c7e7     <unknown>
    3640:	07 c8 17 c8 	c817c807     r7 = insert (r23, r9:8)
    3644:	27 c8 37 c8 	c837c827     r7 = insert (r23, r9:8)
    3648:	47 c8 57 c8 	c857c847     r7 = insert (r23, r9:8)
    364c:	67 c8 77 c8 	c877c867     r7 = insert (r23, r9:8)
    3650:	87 c8 97 c8 	c897c887     r7 = insert (r23, r9:8)
    3654:	a7 c8 b7 c8 	c8b7c8a7     r7 = insert (r23, r9:8)
    3658:	c7 c8 d7 c8 	c8d7c8c7     r7 = insert (r23, r9:8)
    365c:	e7 c8 f7 c8 	c8f7c8e7     r7 = insert (r23, r9:8)
    3660:	07 c9 17 c9 	c917c907     r7 = extractu (r23, r10:9)
    3664:	27 c9 37 c9 	c937c927     r7 = extractu (r23, r10:9)
    3668:	47 c9 57 c9 	c957c947     <unknown>
    366c:	67 c9 77 c9 	c977c967     <unknown>
    3670:	87 c9 97 c9 	c997c987     <unknown>
    3674:	a7 c9 b7 c9 	c9b7c9a7     <unknown>
    3678:	c7 c9 d7 c9 	c9d7c9c7     <unknown>
    367c:	e7 c9 f7 c9 	c9f7c9e7     <unknown>
    3680:	07 ca 17 ca 	ca17ca07     r8:7 = insert (r24:23, r11:10)
    3684:	27 ca 37 ca 	ca37ca27     r8:7 = insert (r24:23, r11:10)
    3688:	47 ca 57 ca 	ca57ca47     r8:7 = insert (r24:23, r11:10)
    368c:	67 ca 77 ca 	ca77ca67     r8:7 = insert (r24:23, r11:10)
    3690:	87 ca 97 ca 	ca97ca87     r8:7 ^= xor (r24:23, r11:10)
    3694:	a7 ca b7 ca 	cab7caa7     r8:7 ^= xor (r24:23, r11:10)
    3698:	c7 ca d7 ca 	cad7cac7     r8:7 ^= xor (r24:23, r11:10)
    369c:	e7 ca f7 ca 	caf7cae7     r8:7 ^= xor (r24:23, r11:10)
    36a0:	07 cb 17 cb 	cb17cb07     r8:7 |= asr (r24:23, r11)
    36a4:	27 cb 37 cb 	cb37cb27     r12:11 = vrmaxh (r24:23, r7)
    36a8:	47 cb 57 cb 	cb57cb47     r8:7 &= lsr (r24:23, r11)
    36ac:	67 cb 77 cb 	cb77cb67     r8:7 ^= lsr (r24:23, r11)
    36b0:	87 cb 97 cb 	cb97cb87     r8:7 -= asl (r24:23, r11)
    36b4:	a7 cb b7 cb 	cbb7cba7     r8:7 += vrcrotate (r24:23, r11, #1)
    36b8:	c7 cb d7 cb 	cbd7cbc7     r8:7 += lsl (r24:23, r11)
    36bc:	e7 cb f7 cb 	cbf7cbe7     <unknown>
    36c0:	07 cc 17 cc 	cc17cc07     r7 |= asr (r23, r12)
    36c4:	27 cc 37 cc 	cc37cc27     r7 |= asr (r23, r12)
    36c8:	47 cc 57 cc 	cc57cc47     r7 &= lsr (r23, r12)
    36cc:	67 cc 77 cc 	cc77cc67     r7 &= lsr (r23, r12)
    36d0:	87 cc 97 cc 	cc97cc87     r7 -= asl (r23, r12)
    36d4:	a7 cc b7 cc 	ccb7cca7     r7 -= asl (r23, r12)
    36d8:	c7 cc d7 cc 	ccd7ccc7     r7 += lsl (r23, r12)
    36dc:	e7 cc f7 cc 	ccf7cce7     r7 += lsl (r23, r12)
    36e0:	07 cd 17 cd 	cd17cd07     <unknown>
    36e4:	27 cd 37 cd 	cd37cd27     <unknown>
    36e8:	47 cd 57 cd 	cd57cd47     <unknown>
    36ec:	67 cd 77 cd 	cd77cd67     <unknown>
    36f0:	87 cd 97 cd 	cd97cd87     <unknown>
    36f4:	a7 cd b7 cd 	cdb7cda7     <unknown>
    36f8:	c7 cd d7 cd 	cdd7cdc7     <unknown>
    36fc:	e7 cd f7 cd 	cdf7cde7     <unknown>
    3700:	07 ce 17 ce 	ce17ce07     <unknown>
    3704:	27 ce 37 ce 	ce37ce27     <unknown>
    3708:	47 ce 57 ce 	ce57ce47     <unknown>
    370c:	67 ce 77 ce 	ce77ce67     <unknown>
    3710:	87 ce 97 ce 	ce97ce87     <unknown>
    3714:	a7 ce b7 ce 	ceb7cea7     <unknown>
    3718:	c7 ce d7 ce 	ced7cec7     <unknown>
    371c:	e7 ce f7 ce 	cef7cee7     <unknown>
    3720:	07 cf 17 cf 	cf17cf07     r8:7 = userinsn (r24:23, r16:15, #0)
    3724:	27 cf 37 cf 	cf37cf27     r8:7 = userinsn (r24:23, r16:15, #17)
    3728:	47 cf 57 cf 	cf57cf47     r8:7 = userinsn (r24:23, r16:15, #34)
    372c:	67 cf 77 cf 	cf77cf67     r8:7 = userinsn (r24:23, r16:15, #51)
    3730:	87 cf 97 cf 	cf97cf87     r8:7 = userinsn (r24:23, r16:15, #68)
    3734:	a7 cf b7 cf 	cfb7cfa7     r8:7 = userinsn (r24:23, r16:15, #85)
    3738:	c7 cf d7 cf 	cfd7cfc7     r8:7 = userinsn (r24:23, r16:15, #102)
    373c:	e7 cf f7 cf 	cff7cfe7     r8:7 = userinsn (r24:23, r16:15, #119)
    3740:	07 d0 17 d0 	d017d007     r7 = parity (r24:23, r17:16)
    3744:	27 d0 37 d0 	d037d027     r7 = parity (r24:23, r17:16)
    3748:	47 d0 57 d0 	d057d047     r7 = parity (r24:23, r17:16)
    374c:	67 d0 77 d0 	d077d067     r7 = parity (r24:23, r17:16)
    3750:	87 d0 97 d0 	d097d087     r7 = parity (r24:23, r17:16)
    3754:	a7 d0 b7 d0 	d0b7d0a7     r7 = parity (r24:23, r17:16)
    3758:	c7 d0 d7 d0 	d0d7d0c7     r7 = parity (r24:23, r17:16)
    375c:	e7 d0 f7 d0 	d0f7d0e7     r7 = parity (r24:23, r17:16)
    3760:	07 d1 17 d1 	d117d107     r8:7 = vmux (p0, r24:23, r18:17)
    3764:	27 d1 37 d1 	d137d127     r8:7 = vmux (p1, r24:23, r18:17)
    3768:	47 d1 57 d1 	d157d147     r8:7 = vmux (p2, r24:23, r18:17)
    376c:	67 d1 77 d1 	d177d167     r8:7 = vmux (p3, r24:23, r18:17)
    3770:	87 d1 97 d1 	d197d187     r8:7 = vmux (p0, r24:23, r18:17)
    3774:	a7 d1 b7 d1 	d1b7d1a7     r8:7 = vmux (p1, r24:23, r18:17)
    3778:	c7 d1 d7 d1 	d1d7d1c7     r8:7 = vmux (p2, r24:23, r18:17)
    377c:	e7 d1 f7 d1 	d1f7d1e7     r8:7 = vmux (p3, r24:23, r18:17)
    3780:	07 d2 17 d2 	d217d207     p3 = vcmpw.eq (r24:23, r19:18)
    3784:	27 d2 37 d2 	d237d227     p3 = vcmpw.gt (r24:23, r19:18)
    3788:	47 d2 57 d2 	d257d247     p3 = vcmpw.gtu (r24:23, r19:18)
    378c:	67 d2 77 d2 	d277d267     p3 = vcmph.eq (r24:23, r19:18)
    3790:	87 d2 97 d2 	d297d287     p3 = cmp.gtu (r24:23, r19:18)
    3794:	a7 d2 b7 d2 	d2b7d2a7     <unknown>
    3798:	c7 d2 d7 d2 	d2d7d2c7     <unknown>
    379c:	e7 d2 f7 d2 	d2f7d2e7     <unknown>
    37a0:	07 d3 17 d3 	d317d307     r8:7 = vaddub (r24:23, r20:19)
    37a4:	27 d3 37 d3 	d337d327     r8:7 = vsubub (r20:19, r24:23):sat
    37a8:	47 d3 57 d3 	d357d347     r8:7 = vavgh (r24:23, r20:19)
    37ac:	67 d3 77 d3 	d377d367     r8:7 = vavguw (r24:23, r20:19)
    37b0:	87 d3 97 d3 	d397d387     r8:7 = vnavgw (r20:19, r24:23):rnd:sat
    37b4:	a7 d3 b7 d3 	d3b7d3a7     r8:7 = vmaxuw (r20:19, r24:23)
    37b8:	c7 d3 d7 d3 	d3d7d3c7     r8:7 = vmaxb (r20:19, r24:23)
    37bc:	e7 d3 f7 d3 	d3f7d3e7     r7 = modwrap (r23, r19)
    37c0:	07 d4 17 d4 	d417d407     r8:7 = packhl (r23, r20):deprecated
    37c4:	27 d4 37 d4 	d437d427     r8:7 = bitsplit (r23, r20)
    37c8:	47 d4 57 d4 	d457d447     r8:7 = packhl (r23, r20):deprecated
    37cc:	67 d4 77 d4 	d477d467     r8:7 = bitsplit (r23, r20)
    37d0:	87 d4 97 d4 	d497d487     r8:7 = packhl (r23, r20):deprecated
    37d4:	a7 d4 b7 d4 	d4b7d4a7     r8:7 = bitsplit (r23, r20)
    37d8:	c7 d4 d7 d4 	d4d7d4c7     r8:7 = packhl (r23, r20):deprecated
    37dc:	e7 d4 f7 d4 	d4f7d4e7     r8:7 = bitsplit (r23, r20)
    37e0:	07 d5 17 d5 	d517d507     r7 = add (r21.l, r23.l)
    37e4:	27 d5 37 d5 	d537d527     r7 = sub (r21.l, r23.l)
    37e8:	47 d5 57 d5 	d557d547     r7 = add (r21.h, r23.l):<<16
    37ec:	67 d5 77 d5 	d577d567     r7 = sub (r21.h, r23.h):<<16
    37f0:	87 d5 97 d5 	d597d587     r7 = sub (r21, r23):sat:deprecated
    37f4:	a7 d5 b7 d5 	d5b7d5a7     r7 = minu (r21, r23)
    37f8:	c7 d5 d7 d5 	d5d7d5c7     r7 = maxu (r23, r21)
    37fc:	e7 d5 f7 d5 	d5f7d5e7     r7 = parity (r23, r21)
    3800:	07 d6 17 d6 	d617d607     r7 = sfmake (#176):pos
    3804:	27 d6 37 d6 	d637d627     r7 = sfmake (#689):pos
    3808:	47 d6 57 d6 	d657d647     r7 = sfmake (#178):neg
    380c:	67 d6 77 d6 	d677d667     r7 = sfmake (#691):neg
    3810:	87 d6 97 d6 	d697d687     <unknown>
    3814:	a7 d6 b7 d6 	d6b7d6a7     <unknown>
    3818:	c7 d6 d7 d6 	d6d7d6c7     <unknown>
    381c:	e7 d6 f7 d6 	d6f7d6e7     <unknown>
    3820:	07 d7 17 d7 	d717d707     r7 = add (#0, mpyi (r23, r23))
    3824:	27 d7 37 d7 	d737d727     r7 = add (#17, mpyi (r23, r23))
    3828:	47 d7 57 d7 	d757d747     r7 = add (#34, mpyi (r23, r23))
    382c:	67 d7 77 d7 	d777d767     r7 = add (#51, mpyi (r23, r23))
    3830:	87 d7 97 d7 	d797d787     <unknown>
    3834:	a7 d7 b7 d7 	d7b7d7a7     <unknown>
    3838:	c7 d7 d7 d7 	d7d7d7c7     <unknown>
    383c:	e7 d7 f7 d7 	d7f7d7e7     <unknown>
    3840:	07 d8 17 d8 	d817d807     r24 = add (#0, mpyi (r23, #7))
    3844:	27 d8 37 d8 	d837d827     r24 = add (#17, mpyi (r23, #7))
    3848:	47 d8 57 d8 	d857d847     r24 = add (#34, mpyi (r23, #7))
    384c:	67 d8 77 d8 	d877d867     r24 = add (#51, mpyi (r23, #7))
    3850:	87 d8 97 d8 	d897d887     r24 = add (#4, mpyi (r23, #39))
    3854:	a7 d8 b7 d8 	d8b7d8a7     r24 = add (#21, mpyi (r23, #39))
    3858:	c7 d8 d7 d8 	d8d7d8c7     r24 = add (#38, mpyi (r23, #39))
    385c:	e7 d8 f7 d8 	d8f7d8e7     r24 = add (#55, mpyi (r23, #39))
    3860:	07 d9 17 d9 	d917d907     r8:7 = dfmake (#200):pos
    3864:	27 d9 37 d9 	d937d927     r8:7 = dfmake (#713):pos
    3868:	47 d9 57 d9 	d957d947     r8:7 = dfmake (#202):neg
    386c:	67 d9 77 d9 	d977d967     r8:7 = dfmake (#715):neg
    3870:	87 d9 97 d9 	d997d987     <unknown>
    3874:	a7 d9 b7 d9 	d9b7d9a7     <unknown>
    3878:	c7 d9 d7 d9 	d9d7d9c7     <unknown>
    387c:	e7 d9 f7 d9 	d9f7d9e7     <unknown>
    3880:	07 da 17 da 	da17da07     r7 |= and (r23, #208)
    3884:	27 da 37 da 	da37da27     r7 |= and (r23, #-303)
    3888:	47 da 57 da 	da57da47     r23 = or (r7, and (r23, #210))
    388c:	67 da 77 da 	da77da67     r23 = or (r7, and (r23, #-301))
    3890:	87 da 97 da 	da97da87     r7 |= or (r23, #212)
    3894:	a7 da b7 da 	dab7daa7     r7 |= or (r23, #-299)
    3898:	c7 da d7 da 	dad7dac7     <unknown>
    389c:	e7 da f7 da 	daf7dae7     <unknown>
    38a0:	07 db 17 db 	db17db07     r27 = add (r23, add (r7, #0))
    38a4:	27 db 37 db 	db37db27     r27 = add (r23, add (r7, #17))
    38a8:	47 db 57 db 	db57db47     r27 = add (r23, add (r7, #-30))
    38ac:	67 db 77 db 	db77db67     r27 = add (r23, add (r7, #-13))
    38b0:	87 db 97 db 	db97db87     r27 = add (r23, sub (#4, r7))
    38b4:	a7 db b7 db 	dbb7dba7     r27 = add (r23, sub (#21, r7))
    38b8:	c7 db d7 db 	dbd7dbc7     r27 = add (r23, sub (#-26, r7))
    38bc:	e7 db f7 db 	dbf7dbe7     r27 = add (r23, sub (#-9, r7))
    38c0:	07 dc 17 dc 	dc17dc07     p3 = vcmpb.eq (r24:23, #224)
    38c4:	27 dc 37 dc 	dc37dc27     p3 = vcmpb.gt (r24:23, #-31)
    38c8:	47 dc 57 dc 	dc57dc47     <unknown>
    38cc:	67 dc 77 dc 	dc77dc67     <unknown>
    38d0:	87 dc 97 dc 	dc97dc87     <unknown>
    38d4:	a7 dc b7 dc 	dcb7dca7     <unknown>
    38d8:	c7 dc d7 dc 	dcd7dcc7     <unknown>
    38dc:	e7 dc f7 dc 	dcf7dce7     <unknown>
    38e0:	07 dd 17 dd 	dd17dd07     p3 = cmpb.eq (r23, #232)
    38e4:	27 dd 37 dd 	dd37dd27     p3 = cmpb.gt (r23, #-23)
    38e8:	47 dd 57 dd 	dd57dd47     <unknown>
    38ec:	67 dd 77 dd 	dd77dd67     <unknown>
    38f0:	87 dd 97 dd 	dd97dd87     p3 = cmpb.eq (r23, #236)
    38f4:	a7 dd b7 dd 	ddb7dda7     p3 = cmpb.gt (r23, #-19)
    38f8:	c7 dd d7 dd 	ddd7ddc7     <unknown>
    38fc:	e7 dd f7 dd 	ddf7dde7     <unknown>
    3900:	07 de 17 de 	de17de07     r23 = sub (#0, asl (r23, #30))
    3904:	27 de 37 de 	de37de27     r23 = sub (#34, asl (r23, #30))
    3908:	47 de 57 de 	de57de47     r23 = sub (#68, asl (r23, #30))
    390c:	67 de 77 de 	de77de67     r23 = sub (#102, asl (r23, #30))
    3910:	87 de 97 de 	de97de87     r23 = sub (#136, asl (r23, #30))
    3914:	a7 de b7 de 	deb7dea7     r23 = sub (#170, asl (r23, #30))
    3918:	c7 de d7 de 	ded7dec7     r23 = sub (#204, asl (r23, #30))
    391c:	e7 de f7 de 	def7dee7     r23 = sub (#238, asl (r23, #30))
    3920:	07 df 17 df 	df17df07     r31 = add (r7, mpyi (#0, r23))
    3924:	27 df 37 df 	df37df27     r31 = add (r7, mpyi (#68, r23))
    3928:	47 df 57 df 	df57df47     r31 = add (r7, mpyi (#136, r23))
    392c:	67 df 77 df 	df77df67     r31 = add (r7, mpyi (#204, r23))
    3930:	87 df 97 df 	df97df87     r31 = add (r7, mpyi (r23, #4))
    3934:	a7 df b7 df 	dfb7dfa7     r31 = add (r7, mpyi (r23, #21))
    3938:	c7 df d7 df 	dfd7dfc7     r31 = add (r7, mpyi (r23, #38))
    393c:	e7 df f7 df 	dff7dfe7     r31 = add (r7, mpyi (r23, #55))
    3940:	07 e0 17 e0 	e017e007     <unknown>
    3944:	27 e0 37 e0 	e037e027     <unknown>
    3948:	47 e0 57 e0 	e057e047     <unknown>
    394c:	67 e0 77 e0 	e077e067     <unknown>
    3950:	87 e0 97 e0 	e097e087     <unknown>
    3954:	a7 e0 b7 e0 	e0b7e0a7     <unknown>
    3958:	c7 e0 d7 e0 	e0d7e0c7     <unknown>
    395c:	e7 e0 f7 e0 	e0f7e0e7     <unknown>
    3960:	07 e1 17 e1 	e117e107     <unknown>
    3964:	27 e1 37 e1 	e137e127     <unknown>
    3968:	47 e1 57 e1 	e157e147     <unknown>
    396c:	67 e1 77 e1 	e177e167     <unknown>
    3970:	87 e1 97 e1 	e197e187     <unknown>
    3974:	a7 e1 b7 e1 	e1b7e1a7     <unknown>
    3978:	c7 e1 d7 e1 	e1d7e1c7     <unknown>
    397c:	e7 e1 f7 e1 	e1f7e1e7     <unknown>
    3980:	07 e2 17 e2 	e217e207     <unknown>
    3984:	27 e2 37 e2 	e237e227     <unknown>
    3988:	47 e2 57 e2 	e257e247     <unknown>
    398c:	67 e2 77 e2 	e277e267     <unknown>
    3990:	87 e2 97 e2 	e297e287     <unknown>
    3994:	a7 e2 b7 e2 	e2b7e2a7     <unknown>
    3998:	c7 e2 d7 e2 	e2d7e2c7     <unknown>
    399c:	e7 e2 f7 e2 	e2f7e2e7     <unknown>
    39a0:	07 e3 17 e3 	e317e307     r3 = add (r7, mpyi (r3, r23))
    39a4:	27 e3 37 e3 	e337e327     <unknown>
    39a8:	47 e3 57 e3 	e357e347     <unknown>
    39ac:	67 e3 77 e3 	e377e367     <unknown>
    39b0:	87 e3 97 e3 	e397e387     <unknown>
    39b4:	a7 e3 b7 e3 	e3b7e3a7     <unknown>
    39b8:	c7 e3 d7 e3 	e3d7e3c7     <unknown>
    39bc:	e7 e3 f7 e3 	e3f7e3e7     <unknown>
    39c0:	07 e4 17 e4 	e417e407     r8:7 = mpy (r23.l, r4.l)
    39c4:	27 e4 37 e4 	e437e427     r8:7 = mpy (r23.l, r4.h):rnd
    39c8:	47 e4 57 e4 	e457e447     r8:7 = mpyu (r23.h, r4.l)
    39cc:	67 e4 77 e4 	e477e467     <unknown>
    39d0:	87 e4 97 e4 	e497e487     r8:7 = mpy (r23.l, r4.l):<<1
    39d4:	a7 e4 b7 e4 	e4b7e4a7     r8:7 = mpy (r23.l, r4.h):<<1:rnd
    39d8:	c7 e4 d7 e4 	e4d7e4c7     r8:7 = mpyu (r23.h, r4.l):<<1
    39dc:	e7 e4 f7 e4 	e4f7e4e7     <unknown>
    39e0:	07 e5 17 e5 	e517e507     <unknown>
    39e4:	27 e5 37 e5 	e537e527     <unknown>
    39e8:	47 e5 57 e5 	e557e547     <unknown>
    39ec:	67 e5 77 e5 	e577e567     <unknown>
    39f0:	87 e5 97 e5 	e597e587     <unknown>
    39f4:	a7 e5 b7 e5 	e5b7e5a7     <unknown>
    39f8:	c7 e5 d7 e5 	e5d7e5c7     <unknown>
    39fc:	e7 e5 f7 e5 	e5f7e5e7     <unknown>
    3a00:	07 e6 17 e6 	e617e607     r8:7 += mpy (r23.l, r6.l)
    3a04:	27 e6 37 e6 	e637e627     r8:7 -= mpy (r23.l, r6.h)
    3a08:	47 e6 57 e6 	e657e647     r8:7 += mpyu (r23.h, r6.l)
    3a0c:	67 e6 77 e6 	e677e667     r8:7 -= mpyu (r23.h, r6.h)
    3a10:	87 e6 97 e6 	e697e687     <unknown>
    3a14:	a7 e6 b7 e6 	e6b7e6a7     <unknown>
    3a18:	c7 e6 d7 e6 	e6d7e6c7     <unknown>
    3a1c:	e7 e6 f7 e6 	e6f7e6e7     <unknown>
    3a20:	07 e7 17 e7 	e717e707     <unknown>
    3a24:	27 e7 37 e7 	e737e727     <unknown>
    3a28:	47 e7 57 e7 	e757e747     <unknown>
    3a2c:	67 e7 77 e7 	e777e767     <unknown>
    3a30:	87 e7 97 e7 	e797e787     <unknown>
    3a34:	a7 e7 b7 e7 	e7b7e7a7     <unknown>
    3a38:	c7 e7 d7 e7 	e7d7e7c7     <unknown>
    3a3c:	e7 e7 f7 e7 	e7f7e7e7     <unknown>
    3a40:	07 e8 17 e8 	e817e807     <unknown>
    3a44:	27 e8 37 e8 	e837e827     <unknown>
    3a48:	47 e8 57 e8 	e857e847     <unknown>
    3a4c:	67 e8 77 e8 	e877e867     <unknown>
    3a50:	87 e8 97 e8 	e897e887     <unknown>
    3a54:	a7 e8 b7 e8 	e8b7e8a7     <unknown>
    3a58:	c7 e8 d7 e8 	e8d7e8c7     <unknown>
    3a5c:	e7 e8 f7 e8 	e8f7e8e7     <unknown>
    3a60:	07 e9 17 e9 	e917e907     <unknown>
    3a64:	27 e9 37 e9 	e937e927     <unknown>
    3a68:	47 e9 57 e9 	e957e947     <unknown>
    3a6c:	67 e9 77 e9 	e977e967     <unknown>
    3a70:	87 e9 97 e9 	e997e987     <unknown>
    3a74:	a7 e9 b7 e9 	e9b7e9a7     <unknown>
    3a78:	c7 e9 d7 e9 	e9d7e9c7     <unknown>
    3a7c:	e7 e9 f7 e9 	e9f7e9e7     <unknown>
    3a80:	07 ea 17 ea 	ea17ea07     <unknown>
    3a84:	27 ea 37 ea 	ea37ea27     <unknown>
    3a88:	47 ea 57 ea 	ea57ea47     <unknown>
    3a8c:	67 ea 77 ea 	ea77ea67     <unknown>
    3a90:	87 ea 97 ea 	ea97ea87     <unknown>
    3a94:	a7 ea b7 ea 	eab7eaa7     <unknown>
    3a98:	c7 ea d7 ea 	ead7eac7     <unknown>
    3a9c:	e7 ea f7 ea 	eaf7eae7     <unknown>
    3aa0:	07 eb 17 eb 	eb17eb07     <unknown>
    3aa4:	27 eb 37 eb 	eb37eb27     <unknown>
    3aa8:	47 eb 57 eb 	eb57eb47     <unknown>
    3aac:	67 eb 77 eb 	eb77eb67     <unknown>
    3ab0:	87 eb 97 eb 	eb97eb87     <unknown>
    3ab4:	a7 eb b7 eb 	ebb7eba7     <unknown>
    3ab8:	c7 eb d7 eb 	ebd7ebc7     <unknown>
    3abc:	e7 eb f7 eb 	ebf7ebe7     <unknown>
    3ac0:	07 ec 17 ec 	ec17ec07     r7 = mpy (r23.l, r12.l)
    3ac4:	27 ec 37 ec 	ec37ec27     r7 = mpy (r23.l, r12.h):rnd
    3ac8:	47 ec 57 ec 	ec57ec47     r7 = mpyu (r23.h, r12.l)
    3acc:	67 ec 77 ec 	ec77ec67     <unknown>
    3ad0:	87 ec 97 ec 	ec97ec87     r7 = mpy (r23.l, r12.l):<<1:sat
    3ad4:	a7 ec b7 ec 	ecb7eca7     r7 = mpy (r23.l, r12.h):<<1:rnd:sat
    3ad8:	c7 ec d7 ec 	ecd7ecc7     <unknown>
    3adc:	e7 ec f7 ec 	ecf7ece7     <unknown>
    3ae0:	07 ed 17 ed 	ed17ed07     <unknown>
    3ae4:	27 ed 37 ed 	ed37ed27     <unknown>
    3ae8:	47 ed 57 ed 	ed57ed47     <unknown>
    3aec:	67 ed 77 ed 	ed77ed67     <unknown>
    3af0:	87 ed 97 ed 	ed97ed87     <unknown>
    3af4:	a7 ed b7 ed 	edb7eda7     <unknown>
    3af8:	c7 ed d7 ed 	edd7edc7     <unknown>
    3afc:	e7 ed f7 ed 	edf7ede7     <unknown>
    3b00:	07 ee 17 ee 	ee17ee07     r7 += mpy (r23.l, r14.l)
    3b04:	27 ee 37 ee 	ee37ee27     r7 -= mpy (r23.l, r14.h)
    3b08:	47 ee 57 ee 	ee57ee47     r7 += mpyu (r23.h, r14.l)
    3b0c:	67 ee 77 ee 	ee77ee67     r7 -= mpyu (r23.h, r14.h)
    3b10:	87 ee 97 ee 	ee97ee87     r7 += mpy (r23.l, r14.l):<<1:sat
    3b14:	a7 ee b7 ee 	eeb7eea7     r7 -= mpy (r23.l, r14.h):<<1:sat
    3b18:	c7 ee d7 ee 	eed7eec7     <unknown>
    3b1c:	e7 ee f7 ee 	eef7eee7     <unknown>
    3b20:	07 ef 17 ef 	ef17ef07     <unknown>
    3b24:	27 ef 37 ef 	ef37ef27     <unknown>
    3b28:	47 ef 57 ef 	ef57ef47     <unknown>
    3b2c:	67 ef 77 ef 	ef77ef67     <unknown>
    3b30:	87 ef 97 ef 	ef97ef87     <unknown>
    3b34:	a7 ef b7 ef 	efb7efa7     <unknown>
    3b38:	c7 ef d7 ef 	efd7efc7     <unknown>
    3b3c:	e7 ef f7 ef 	eff7efe7     <unknown>
    3b40:	07 f0 17 f0 	f017f007     <unknown>
    3b44:	27 f0 37 f0 	f037f027     <unknown>
    3b48:	47 f0 57 f0 	f057f047     <unknown>
    3b4c:	67 f0 77 f0 	f077f067     <unknown>
    3b50:	87 f0 97 f0 	f097f087     <unknown>
    3b54:	a7 f0 b7 f0 	f0b7f0a7     <unknown>
    3b58:	c7 f0 d7 f0 	f0d7f0c7     <unknown>
    3b5c:	e7 f0 f7 f0 	f0f7f0e7     <unknown>
    3b60:	07 f1 17 f1 	f117f107     r7 = and (r23, r17)
    3b64:	27 f1 37 f1 	f137f127     r7 = or (r23, r17)
    3b68:	47 f1 57 f1 	f157f147     <unknown>
    3b6c:	67 f1 77 f1 	f177f167     r7 = xor (r23, r17)
    3b70:	87 f1 97 f1 	f197f187     r7 = and (r17, ~ r23)
    3b74:	a7 f1 b7 f1 	f1b7f1a7     r7 = or (r17, ~ r23)
    3b78:	c7 f1 d7 f1 	f1d7f1c7     <unknown>
    3b7c:	e7 f1 f7 f1 	f1f7f1e7     <unknown>
    3b80:	07 f2 17 f2 	f217f207     <unknown>
    3b84:	27 f2 37 f2 	f237f227     <unknown>
    3b88:	47 f2 57 f2 	f257f247     <unknown>
    3b8c:	67 f2 77 f2 	f277f267     <unknown>
    3b90:	87 f2 97 f2 	f297f287     <unknown>
    3b94:	a7 f2 b7 f2 	f2b7f2a7     <unknown>
    3b98:	c7 f2 d7 f2 	f2d7f2c7     <unknown>
    3b9c:	e7 f2 f7 f2 	f2f7f2e7     <unknown>
    3ba0:	07 f3 17 f3 	f317f307     r7 = add (r23, r19)
    3ba4:	27 f3 37 f3 	f337f327     r7 = sub (r19, r23)
    3ba8:	47 f3 57 f3 	f357f347     r7 = cmp.eq (r23, r19)
    3bac:	67 f3 77 f3 	f377f367     r7 = !cmp.eq (r23, r19)
    3bb0:	87 f3 97 f3 	f397f387     r7 = combine (r19.h, r23.h)
    3bb4:	a7 f3 b7 f3 	f3b7f3a7     r7 = combine (r19.h, r23.l)
    3bb8:	c7 f3 d7 f3 	f3d7f3c7     r7 = combine (r19.l, r23.h)
    3bbc:	e7 f3 f7 f3 	f3f7f3e7     r7 = combine (r19.l, r23.l)
    3bc0:	07 f4 17 f4 	f417f407     r7 = mux (p0, r23, r20)
    3bc4:	27 f4 37 f4 	f437f427     r7 = mux (p1, r23, r20)
    3bc8:	47 f4 57 f4 	f457f447     r7 = mux (p2, r23, r20)
    3bcc:	67 f4 77 f4 	f477f467     r7 = mux (p3, r23, r20)
    3bd0:	87 f4 97 f4 	f497f487     r7 = mux (p0, r23, r20)
    3bd4:	a7 f4 b7 f4 	f4b7f4a7     r7 = mux (p1, r23, r20)
    3bd8:	c7 f4 d7 f4 	f4d7f4c7     r7 = mux (p2, r23, r20)
    3bdc:	e7 f4 f7 f4 	f4f7f4e7     r7 = mux (p3, r23, r20)
    3be0:	07 f5 17 f5 	f517f507     r8:7 = combine (r23, r21)
    3be4:	27 f5 37 f5 	f537f527     r8:7 = combine (r23, r21)
    3be8:	47 f5 57 f5 	f557f547     r8:7 = combine (r23, r21)
    3bec:	67 f5 77 f5 	f577f567     r8:7 = combine (r23, r21)
    3bf0:	87 f5 97 f5 	f597f587     r8:7 = packhl (r23, r21)
    3bf4:	a7 f5 b7 f5 	f5b7f5a7     r8:7 = packhl (r23, r21)
    3bf8:	c7 f5 d7 f5 	f5d7f5c7     r8:7 = packhl (r23, r21)
    3bfc:	e7 f5 f7 f5 	f5f7f5e7     r8:7 = packhl (r23, r21)
    3c00:	07 f6 17 f6 	f617f607     r7 = vaddh (r23, r22)
    3c04:	27 f6 37 f6 	f637f627     r7 = vaddh (r23, r22):sat
    3c08:	47 f6 57 f6 	f657f647     r7 = add (r23, r22):sat
    3c0c:	67 f6 77 f6 	f677f667     r7 = vadduh (r23, r22):sat
    3c10:	87 f6 97 f6 	f697f687     r7 = vsubh (r22, r23)
    3c14:	a7 f6 b7 f6 	f6b7f6a7     r7 = vsubh (r22, r23):sat
    3c18:	c7 f6 d7 f6 	f6d7f6c7     r7 = sub (r22, r23):sat
    3c1c:	e7 f6 f7 f6 	f6f7f6e7     r7 = vsubuh (r22, r23):sat
    3c20:	07 f7 17 f7 	f717f707     r7 = vavgh (r23, r23)
    3c24:	27 f7 37 f7 	f737f727     r7 = vavgh (r23, r23):rnd
    3c28:	47 f7 57 f7 	f757f747     <unknown>
    3c2c:	67 f7 77 f7 	f777f767     r7 = vnavgh (r23, r23)
    3c30:	87 f7 97 f7 	f797f787     r7 = vavgh (r23, r23)
    3c34:	a7 f7 b7 f7 	f7b7f7a7     r7 = vavgh (r23, r23):rnd
    3c38:	c7 f7 d7 f7 	f7d7f7c7     <unknown>
    3c3c:	e7 f7 f7 f7 	f7f7f7e7     r7 = vnavgh (r23, r23)
    3c40:	07 f8 17 f8 	f817f807     <unknown>
    3c44:	27 f8 37 f8 	f837f827     <unknown>
    3c48:	47 f8 57 f8 	f857f847     <unknown>
    3c4c:	67 f8 77 f8 	f877f867     <unknown>
    3c50:	87 f8 97 f8 	f897f887     <unknown>
    3c54:	a7 f8 b7 f8 	f8b7f8a7     <unknown>
    3c58:	c7 f8 d7 f8 	f8d7f8c7     <unknown>
    3c5c:	e7 f8 f7 f8 	f8f7f8e7     <unknown>
    3c60:	07 f9 17 f9 	f917f907     if (p0.new) r7 = and (r23, r25)
    3c64:	27 f9 37 f9 	f937f927     if (p1.new) r7 = or (r23, r25)
    3c68:	47 f9 57 f9 	f957f947     <unknown>
    3c6c:	67 f9 77 f9 	f977f967     if (p3.new) r7 = xor (r23, r25)
    3c70:	87 f9 97 f9 	f997f987     if !p0.new r7 = and (r23, r25)
    3c74:	a7 f9 b7 f9 	f9b7f9a7     if !p1.new r7 = or (r23, r25)
    3c78:	c7 f9 d7 f9 	f9d7f9c7     <unknown>
    3c7c:	e7 f9 f7 f9 	f9f7f9e7     if !p3.new r7 = xor (r23, r25)
    3c80:	07 fa 17 fa 	fa17fa07     <unknown>
    3c84:	27 fa 37 fa 	fa37fa27     <unknown>
    3c88:	47 fa 57 fa 	fa57fa47     <unknown>
    3c8c:	67 fa 77 fa 	fa77fa67     <unknown>
    3c90:	87 fa 97 fa 	fa97fa87     <unknown>
    3c94:	a7 fa b7 fa 	fab7faa7     <unknown>
    3c98:	c7 fa d7 fa 	fad7fac7     <unknown>
    3c9c:	e7 fa f7 fa 	faf7fae7     <unknown>
    3ca0:	07 fb 17 fb 	fb17fb07     if (p0.new) r7 = add (r23, r27)
    3ca4:	27 fb 37 fb 	fb37fb27     if (p1.new) r7 = sub (r27, r23)
    3ca8:	47 fb 57 fb 	fb57fb47     if (p2.new) r7 = add (r23, r27)
    3cac:	67 fb 77 fb 	fb77fb67     if (p3.new) r7 = sub (r27, r23)
    3cb0:	87 fb 97 fb 	fb97fb87     <unknown>
    3cb4:	a7 fb b7 fb 	fbb7fba7     <unknown>
    3cb8:	c7 fb d7 fb 	fbd7fbc7     <unknown>
    3cbc:	e7 fb f7 fb 	fbf7fbe7     <unknown>
    3cc0:	07 fc 17 fc 	fc17fc07     <unknown>
    3cc4:	27 fc 37 fc 	fc37fc27     <unknown>
    3cc8:	47 fc 57 fc 	fc57fc47     <unknown>
    3ccc:	67 fc 77 fc 	fc77fc67     <unknown>
    3cd0:	87 fc 97 fc 	fc97fc87     <unknown>
    3cd4:	a7 fc b7 fc 	fcb7fca7     <unknown>
    3cd8:	c7 fc d7 fc 	fcd7fcc7     <unknown>
    3cdc:	e7 fc f7 fc 	fcf7fce7     <unknown>
    3ce0:	07 fd 17 fd 	fd17fd07     if (p0.new) r8:7 = combine (r23, r29)
    3ce4:	27 fd 37 fd 	fd37fd27     if (p1.new) r8:7 = combine (r23, r29)
    3ce8:	47 fd 57 fd 	fd57fd47     if (p2.new) r8:7 = combine (r23, r29)
    3cec:	67 fd 77 fd 	fd77fd67     if (p3.new) r8:7 = combine (r23, r29)
    3cf0:	87 fd 97 fd 	fd97fd87     if !p0.new r8:7 = combine (r23, r29)
    3cf4:	a7 fd b7 fd 	fdb7fda7     if !p1.new r8:7 = combine (r23, r29)
    3cf8:	c7 fd d7 fd 	fdd7fdc7     if !p2.new r8:7 = combine (r23, r29)
    3cfc:	e7 fd f7 fd 	fdf7fde7     if !p3.new r8:7 = combine (r23, r29)
    3d00:	07 fe 17 fe 	fe17fe07     <unknown>
    3d04:	27 fe 37 fe 	fe37fe27     <unknown>
    3d08:	47 fe 57 fe 	fe57fe47     <unknown>
    3d0c:	67 fe 77 fe 	fe77fe67     <unknown>
    3d10:	87 fe 97 fe 	fe97fe87     <unknown>
    3d14:	a7 fe b7 fe 	feb7fea7     <unknown>
    3d18:	c7 fe d7 fe 	fed7fec7     <unknown>
    3d1c:	e7 fe f7 fe 	fef7fee7     <unknown>
    3d20:	07 ff 17 ff 	ff17ff07     <unknown>
    3d24:	27 ff 37 ff 	ff37ff27     <unknown>
    3d28:	47 ff 57 ff 	ff57ff47     <unknown>
    3d2c:	67 ff 77 ff 	ff77ff67     <unknown>
    3d30:	87 ff 97 ff 	ff97ff87     <unknown>
    3d34:	a7 ff b7 ff 	ffb7ffa7     <unknown>
    3d38:	c7 ff d7 ff 	ffd7ffc7     <unknown>
    3d3c:	e7 ff f7 ff 	fff7ffe7     <unknown>

Disassembly of section .init:

00003d40 <_init>:
    3d40:	01 c0 9d a0 	a09dc001     allocframe (#8)
    3d44:	00 db 9d a1 	a19ddb00     memw (r29 + #0) = r27
    3d48:	01 c0 20 72 	7220c001     r0.h = #1
    3d4c:	60 cd 20 71 	7120cd60     r0.l = #3424
    3d50:	01 c0 80 91 	9180c001     r1 = memw (r0 + #0)
    3d54:	0c c0 01 10 	1001c00c     p0 = cmp.eq (r1, #0) ; if (p0.new) jump:nt 3d6c <_init+0x2c>
    3d58:	02 40 00 78 	78004002     { r2 = #0
    3d5c:	01 28 03 28 	28032801       r3 = #0 ; r1 = #0 }
    3d60:	00 c0 3c 72 	723cc000     r28.h = #0
    3d64:	d0 e9 7c 71 	717ce9d0     r28.l = #27088
    3d68:	00 c0 bc 50 	50bcc000     callr r28
    3d6c:	01 c0 3b 72 	723bc001     r27.h = #1
    3d70:	08 d0 3b 71 	713bd008     r27.l = #4104
    3d74:	9b ff fb bf 	bffbff9b     r27 = add (r27, #-4)
    3d78:	00 c0 9b 91 	919bc000     r0 = memw (r27 + #0)
    3d7c:	06 c0 00 10 	1000c006     p0 = cmp.eq (r0, #0) ; if (p0.new) jump:nt 3d88 <_init+0x48>
    3d80:	00 c0 a0 50 	50a0c000     callr r0
    3d84:	f8 ff ff 59 	59fffff8     jump 3d74 <_init+0x34>
    3d88:	1b 40 9d 91 	919d401b     { r27 = memw (r29 + #0)
    3d8c:	1e c0 1e 90 	901ec01e       deallocframe }
    3d90:	00 c0 9f 52 	529fc000     jumpr r31

Disassembly of section .text:

00004000 <.EventVectors>:
    4000:	90 e4 ff 59 	59ffe490     jump 920 <event_handle_reset>
    4004:	fa e4 ff 59 	59ffe4fa     jump 9f8 <event_handle_nmi>
    4008:	fe e4 ff 59 	59ffe4fe     jump a04 <event_handle_error>
    400c:	02 e5 ff 59 	59ffe502     jump a10 <event_handle_rsvd>
    4010:	18 e5 ff 59 	59ffe518     jump a40 <event_handle_tlbmissx>
    4014:	fe e4 ff 59 	59ffe4fe     jump a10 <event_handle_rsvd>
    4018:	94 e5 ff 59 	59ffe594     jump b40 <event_handle_tlbmissrw>
    401c:	fa e4 ff 59 	59ffe4fa     jump a10 <event_handle_rsvd>
    4020:	10 e6 ff 59 	59ffe610     jump c40 <event_handle_trap0>
    4024:	ce e6 ff 59 	59ffe6ce     jump dc0 <event_handle_trap1>
    4028:	f4 e4 ff 59 	59ffe4f4     jump a10 <event_handle_rsvd>
    402c:	f2 e4 ff 59 	59ffe4f2     jump a10 <event_handle_rsvd>
    4030:	f0 e4 ff 59 	59ffe4f0     jump a10 <event_handle_rsvd>
    4034:	ee e4 ff 59 	59ffe4ee     jump a10 <event_handle_rsvd>
    4038:	ec e4 ff 59 	59ffe4ec     jump a10 <event_handle_rsvd>
    403c:	ea e4 ff 59 	59ffe4ea     jump a10 <event_handle_rsvd>
    4040:	c6 e6 ff 59 	59ffe6c6     jump dcc <event_handle_int>
    4044:	c4 e6 ff 59 	59ffe6c4     jump dcc <event_handle_int>
    4048:	c2 e6 ff 59 	59ffe6c2     jump dcc <event_handle_int>
    404c:	c0 e6 ff 59 	59ffe6c0     jump dcc <event_handle_int>
    4050:	be e6 ff 59 	59ffe6be     jump dcc <event_handle_int>
    4054:	bc e6 ff 59 	59ffe6bc     jump dcc <event_handle_int>
    4058:	ba e6 ff 59 	59ffe6ba     jump dcc <event_handle_int>
    405c:	b8 e6 ff 59 	59ffe6b8     jump dcc <event_handle_int>
    4060:	b6 e6 ff 59 	59ffe6b6     jump dcc <event_handle_int>
    4064:	b4 e6 ff 59 	59ffe6b4     jump dcc <event_handle_int>
    4068:	b2 e6 ff 59 	59ffe6b2     jump dcc <event_handle_int>
    406c:	b0 e6 ff 59 	59ffe6b0     jump dcc <event_handle_int>
    4070:	ae e6 ff 59 	59ffe6ae     jump dcc <event_handle_int>
    4074:	ac e6 ff 59 	59ffe6ac     jump dcc <event_handle_int>
    4078:	aa e6 ff 59 	59ffe6aa     jump dcc <event_handle_int>
    407c:	a8 e6 ff 59 	59ffe6a8     jump dcc <event_handle_int>
    4080:	a6 e6 ff 59 	59ffe6a6     jump dcc <event_handle_int>
    4084:	a4 e6 ff 59 	59ffe6a4     jump dcc <event_handle_int>
    4088:	a2 e6 ff 59 	59ffe6a2     jump dcc <event_handle_int>
    408c:	a0 e6 ff 59 	59ffe6a0     jump dcc <event_handle_int>
    4090:	9e e6 ff 59 	59ffe69e     jump dcc <event_handle_int>
    4094:	9c e6 ff 59 	59ffe69c     jump dcc <event_handle_int>
    4098:	9a e6 ff 59 	59ffe69a     jump dcc <event_handle_int>
    409c:	98 e6 ff 59 	59ffe698     jump dcc <event_handle_int>
    40a0:	96 e6 ff 59 	59ffe696     jump dcc <event_handle_int>
    40a4:	94 e6 ff 59 	59ffe694     jump dcc <event_handle_int>
    40a8:	92 e6 ff 59 	59ffe692     jump dcc <event_handle_int>
    40ac:	90 e6 ff 59 	59ffe690     jump dcc <event_handle_int>
    40b0:	8e e6 ff 59 	59ffe68e     jump dcc <event_handle_int>
    40b4:	8c e6 ff 59 	59ffe68c     jump dcc <event_handle_int>
    40b8:	8a e6 ff 59 	59ffe68a     jump dcc <event_handle_int>
    40bc:	88 e6 ff 59 	59ffe688     jump dcc <event_handle_int>

000040c0 <b_exp>:
    40c0:	10 60 00 73 	73006010     { r17:16 = combine (r0, #0)
    40c4:	20 1c f4 eb 	ebf41c20       memd (sp + #-16) = r17:16 ; allocframe (#16) }
    40c8:	f2 7b 02 78 	78027bf2     { r18 = #1503
    40cc:	00 d2 dd a1 	a1ddd200       memd (r29 + #0) = r19:18 }
    40d0:	30 40 10 b0 	b0104030     { r16 = add (r16, #1)
    40d4:	a0 48 00 5a 	5a0048a0       call 5210 <exp>
    40d8:	00 c0 d1 91 	91d1c000       r1:0 = memd (r17 + #0) }
    40dc:	fa 6a 78 14 	14786afa     { p0 = cmp.eq (r16, r18) ; if (!p0.new) jump:t 40d0 <b_exp+0x10>
    40e0:	08 c0 d1 ab 	abd1c008       memd (r17 ++ #8) = r1:0 }
    40e4:	0c 1e 05 3e 	3e051e0c     r19:18 = memd (sp + #0) ; r17:16 = memd (sp + #8)
    40e8:	1e c0 1e 96 	961ec01e     dealloc_return
    40ec:	00 c0 00 7f 	7f00c000     nop

000040f0 <gaussmixp>:
    40f0:	b5 75 ff 0f 	0fff75b5     { immext (#4294798656)
    40f4:	1c 46 00 78 	7800461c       r28 = ##-168592
    40f8:	ff c7 9d a0 	a09dc7ff       allocframe (#16376) }
    40fc:	1d 5c 1d f3 	f31d5c1d     { r29 = add (r29, r28)
    4100:	62 d3 01 5a 	5a01d362       call e7c0 <__save_r16_through_r27> }
    4104:	14 42 03 f5 	f5034214     { r21:20 = combine (r3, r2)
    4108:	4e 44 00 5a 	5a00444e       call 49a0 <voicebox>
    410c:	18 40 01 f5 	f5014018       r25:24 = combine (r1, r0)
    4110:	03 c4 9d a1 	a19dc403       memw (r29 + #12) = r4 }
    4114:	39 4b 00 00 	00004b39     { immext (#183872)
    4118:	17 45 1d b0 	b01d4517       r23 = add (r29, ##183912)
    411c:	02 67 02 78 	78026702       r2 = #1336
    4120:	01 c0 00 78 	7800c001       r1 = #0 }
    4124:	0e 52 00 5a 	5a00520e     { call 6540 <memset>
    4128:	60 c0 9d 91 	919dc060       r0 = memw (r29 + #12) }
    412c:	2c 4b 00 00 	00004b2c     { immext (#183040)
    4130:	13 41 1d b0 	b01d4113       r19 = add (r29, ##183048)
    4134:	00 d4 17 f5 	f517d400       r1:0 = combine (r23, r20) }
    4138:	48 4b 00 00 	00004b48     { immext (#184832)
    413c:	1a 42 1d b0 	b01d421a       r26 = add (r29, ##184848)
    4140:	cc c2 00 5a 	5a00c2cc       call 46d0 <power> }
    4144:	12 40 7a 70 	707a4012     { r18 = r26
    4148:	11 40 7a 70 	707a4011       r17 = r26
    414c:	02 6c 01 78 	78016c02       r2 = #864
    4150:	01 c0 74 70 	7074c001       r1 = r20 }
    4154:	00 40 73 70 	70734000     { r0 = r19
    4158:	7e d0 00 5a 	5a00d07e       call 6250 <memcpy> }
    415c:	47 4b 00 00 	00004b47     { immext (#184768)
    4160:	10 41 1d b0 	b01d4110       r16 = add (r29, ##184776)
    4164:	ea 41 00 5a 	5a0041ea       call 4530 <c_log>
    4168:	00 c0 73 70 	7073c000       r0 = r19 }
    416c:	00 53 1a f5 	f51a5300     { r1:0 = combine (r26, r19)
    4170:	f2 c3 00 5a 	5a00c3f2       call 4950 <sum> }
    4174:	01 40 75 70 	70754001     { r1 = r21
    4178:	02 49 00 78 	78004902       r2 = #72
    417c:	47 4b 00 00 	00004b47       immext (#184768)
    4180:	00 c1 1d b0 	b01dc100       r0 = add (r29, ##184776) }
    4184:	76 d3 01 5a 	5a01d376     call e870 <__hexagon_memcpy_likely_aligned_min32bytes_mult8bytes>
    4188:	47 4b 00 00 	00004b47     { immext (#184768)
    418c:	00 41 1d b0 	b01d4100       r0 = add (r29, ##184776)
    4190:	ec c1 00 5a 	5a00c1ec       call 4560 <b_log> }
    4194:	26 57 01 5a 	5a015726     { call efe0 <__hexagon_muldf3>
    4198:	62 44 c0 49 	49c04462       r3:2 = memd (gp + #280)
    419c:	20 c0 d1 9b 	9bd1c020       r1:0 = memd (r17 ++ #8) }
    41a0:	02 40 01 f5 	f5014002     { r3:2 = combine (r1, r0)
    41a4:	90 54 01 5a 	5a015490       call eac0 <__hexagon_adddf3>
    41a8:	00 c0 d0 91 	91d0c000       r1:0 = memd (r16 + #0) }
    41ac:	00 40 00 7f 	7f004000     { nop
    41b0:	08 c0 d0 ab 	abd0c008       memd (r16 ++ #8) = r1:0 }
    41b4:	00 50 1a f2 	f21a5000     { p0 = cmp.eq (r26, r16)
    41b8:	f0 78 ff 5c 	5cff78f0       if !p0.new jump:t 4194 <gaussmixp+0xa4>
    41bc:	17 4b 00 00 	00004b17       immext (#181696)
    41c0:	00 c2 1d b0 	b01dc200       r0 = add (r29, ##181712) }
    41c4:	10 40 00 78 	78004010     { r16 = #0
    41c8:	11 40 60 70 	70604011       r17 = r0
    41cc:	20 08 10 e8 	e8100820       memw (sp + #4) = r0 ; memw (sp + #8) = r0 }
    41d0:	40 40 90 84 	84904040     { r1:0 = convert_w2df (r16)
    41d4:	78 54 01 5a 	5a015478       call eac0 <__hexagon_adddf3>
    41d8:	30 40 10 b0 	b0104030       r16 = add (r16, #1)
    41dc:	82 c4 c0 49 	49c0c482       r3:2 = memd (gp + #288) }
    41e0:	e0 54 10 75 	751054e0     { p0 = cmp.eq (r16, #167)
    41e4:	f8 78 ff 5c 	5cff78f8       if !p0.new jump:t 41d0 <gaussmixp+0xe0>
    41e8:	10 60 00 7e 	7e006010       if (p0.new) r16 = #0
    41ec:	08 c0 d1 ab 	abd1c008       memd (r17 ++ #8) = r1:0 }
    41f0:	46 4a 00 00 	00004a46     { immext (#168320)
    41f4:	13 44 1d b0 	b01d4413       r19 = add (r29, ##168352)
    41f8:	17 4b 00 00 	00004b17       immext (#181696)
    41fc:	00 c2 1d b0 	b01dc200       r0 = add (r29, ##181712) }
    4200:	01 40 73 70 	70734001     { r1 = r19
    4204:	b8 42 00 5a 	5a0042b8       call 4770 <repmat>
    4208:	00 40 00 7f 	7f004000       nop
    420c:	00 c0 00 7f 	7f00c000       nop }
    4210:	40 40 90 84 	84904040     { r1:0 = convert_w2df (r16)
    4214:	58 54 01 5a 	5a015458       call eac0 <__hexagon_adddf3>
    4218:	30 40 10 b0 	b0104030       r16 = add (r16, #1)
    421c:	82 c4 c0 49 	49c0c482       r3:2 = memd (gp + #288) }
    4220:	00 40 7a 70 	707a4000     { r0 = r26
    4224:	f8 69 78 10 	107869f8       p0 = cmp.eq (r16, #9) ; if (!p0.new) jump:t 4210 <gaussmixp+0x120>
    4228:	00 40 00 7f 	7f004000       nop
    422c:	08 c0 d2 ab 	abd2c008       memd (r18 ++ #8) = r1:0 }
    4230:	8a 49 00 00 	0000498a     { immext (#156288)
    4234:	1b 45 1d b0 	b01d451b       r27 = add (r29, ##156328)
    4238:	14 40 00 7c 	7c004014       r21:20 = combine (#0, #0)
    423c:	00 c0 00 7f 	7f00c000       nop }
    4240:	01 40 7b 70 	707b4001     { r1 = r27
    4244:	80 42 00 5a 	5a004280       call 4740 <b_repmat>
    4248:	02 4b 00 00 	00004b02       immext (#180352)
    424c:	16 c3 1d b0 	b01dc316       r22 = add (r29, ##180376) }
    4250:	04 49 00 78 	78004904     { r4 = #72
    4254:	10 40 73 70 	70734010       r16 = r19
    4258:	11 c0 7b 70 	707bc011       r17 = r27 }
    425c:	6c 44 00 00 	0000446c     { immext (#72448)
    4260:	12 c4 14 d7 	d714c412       r18 = add (##72448, mpyi (r20, r4)) }
    4264:	20 40 d0 9b 	9bd04020     { r1:0 = memd (r16 ++ #8)
    4268:	22 c0 d1 9b 	9bd1c022       r3:2 = memd (r17 ++ #8) }
    426c:	20 40 e0 88 	88e04020     { r0 = convert_df2w (r1:0):chop
    4270:	22 c0 e2 88 	88e2c022       r2 = convert_df2w (r3:2):chop }
    4274:	e0 60 74 db 	db7460e0     { r0 = add (r20, add (r0, #-1))
    4278:	e2 e2 75 db 	db75e2e2       r2 = add (r21, add (r2, #-1)) }
    427c:	74 54 01 5a 	5a015474     { call eb64 <__hexagon_subdf3>
    4280:	80 60 d8 3a 	3ad86080       r1:0 = memd (r24 + r0 << #3)
    4284:	82 e2 d9 3a 	3ad9e282       r3:2 = memd (r25 + r2 << #3) }
    4288:	35 61 15 74 	74156135     { if (p0.new) r21 = add (r21, #9)
    428c:	ee 68 7e 14 	147e68ee       p0 = cmp.eq (r22, r16) ; if (!p0.new) jump:t 4264 <gaussmixp+0x174>
    4290:	08 c0 d2 ab 	abd2c008       memd (r18 ++ #8) = r1:0 }
    4294:	f4 d4 14 b0 	b014d4f4     r20 = add (r20, #167)
    4298:	1f 40 00 00 	0000401f     { immext (#1984)
    429c:	80 42 14 75 	75144280       p0 = cmp.eq (r20, ##2004)
    42a0:	dc 78 ff 5c 	5cff78dc       if !p0.new jump:t 4250 <gaussmixp+0x160>
    42a4:	19 e2 1d 74 	741de219       if (p0.new) r25 = add (r29, #16) }
    42a8:	14 60 7f 7c 	7c7f6014     { r21:20 = combine (#0, #-1)
    42ac:	98 4e 43 78 	78434e98       r24 = #18036
    42b0:	6c 44 00 00 	0000446c       immext (#72448)
    42b4:	00 e0 19 73 	7319e000       r1:0 = combine (r25, ##72448) }
    42b8:	2c 42 00 5a 	5a00422c     { call 4710 <b_power>
    42bc:	00 c0 00 7f 	7f00c000       nop }
    42c0:	51 43 15 8c 	8c154351     { r17 = asl (r21, #3)
    42c4:	6c 44 00 00 	0000446c       immext (#72448)
    42c8:	12 40 00 78 	78004012       r18 = ##72448
    42cc:	10 c0 7b 70 	707bc010       r16 = r27 }
    42d0:	12 51 12 f3 	f3125112     { r18 = add (r18, r17)
    42d4:	11 d1 19 f3 	f319d111       r17 = add (r25, r17) }
    42d8:	20 40 d0 9b 	9bd04020     { r1:0 = memd (r16 ++ #8)
    42dc:	62 c4 c0 49 	49c0c462       r3:2 = memd (gp + #280) }
    42e0:	20 c0 e0 88 	88e0c020     r0 = convert_df2w (r1:0):chop
    42e4:	00 d4 00 f3 	f300d400     r0 = add (r0, r20)
    42e8:	7c 56 01 5a 	5a01567c     { call efe0 <__hexagon_muldf3>
    42ec:	80 e0 d7 3a 	3ad7e080       r1:0 = memd (r23 + r0 << #3) }
    42f0:	02 40 01 f5 	f5014002     { r3:2 = combine (r1, r0)
    42f4:	78 56 01 5a 	5a015678       call efe0 <__hexagon_muldf3>
    42f8:	20 c0 d1 9b 	9bd1c020       r1:0 = memd (r17 ++ #8) }
    42fc:	34 61 14 74 	74146134     { if (p0.new) r20 = add (r20, #9)
    4300:	ee 68 7b 14 	147b68ee       p0 = cmp.eq (r19, r16) ; if (!p0.new) jump:t 42d8 <gaussmixp+0x1e8>
    4304:	08 c0 d2 ab 	abd2c008       memd (r18 ++ #8) = r1:0 }
    4308:	f5 7b 55 b0 	b0557bf5     { r21 = add (r21, #1503)
    430c:	dc d8 73 20 	2073d8dc       if (!cmp.eq (r21.new, r24)) jump:nt 42c0 <gaussmixp+0x1d0> }
    4310:	ce 48 00 00 	000048ce     { immext (#144256)
    4314:	10 46 1d b0 	b01d4610       r16 = add (r29, ##144304)
    4318:	17 40 00 00 	00004017       immext (#1472)
    431c:	f4 c3 00 7c 	7c00c3f4       r21:20 = combine (##1503, #0) }
    4320:	6c 44 00 00 	0000446c     { immext (#72448)
    4324:	00 60 10 73 	73106000       r1:0 = combine (r16, ##72448)
    4328:	c8 42 00 5a 	5a0042c8       call 48b0 <b_sum>
    432c:	00 c0 00 7f 	7f00c000       nop }
    4330:	00 53 10 f5 	f5105300     { r1:0 = combine (r16, r19)
    4334:	90 4f 00 5a 	5a004f90       call 6250 <memcpy>
    4338:	02 5f 17 78 	78175f02       r2 = #12024
    433c:	00 c0 00 7f 	7f00c000       nop }
    4340:	51 43 14 8c 	8c144351     { r17 = asl (r20, #3)
    4344:	47 4b 00 00 	00004b47       immext (#184768)
    4348:	10 c1 1d b0 	b01dc110       r16 = add (r29, ##184776) }
    434c:	12 51 1b f3 	f31b5112     { r18 = add (r27, r17)
    4350:	11 d1 13 f3 	f313d111       r17 = add (r19, r17) }
    4354:	b6 53 01 5a 	5a0153b6     { call eac0 <__hexagon_adddf3>
    4358:	22 40 d0 9b 	9bd04022       r3:2 = memd (r16 ++ #8)
    435c:	20 c0 d1 9b 	9bd1c020       r1:0 = memd (r17 ++ #8) }
    4360:	00 50 1a f2 	f21a5000     { p0 = cmp.eq (r26, r16)
    4364:	fa 78 ff 5c 	5cff78fa       if !p0.new jump:t 4354 <gaussmixp+0x264>
    4368:	34 61 14 74 	74146134       if (p0.new) r20 = add (r20, #9)
    436c:	08 c0 d2 ab 	abd2c008       memd (r18 ++ #8) = r1:0 }
    4370:	12 49 1b b0 	b01b4912     { r18 = add (r27, #72)
    4374:	e8 4d 7c 14 	147c4de8       p0 = cmp.eq (r20, r21) ; if (!p0.new) jump:nt 4340 <gaussmixp+0x250>
    4378:	18 ff 04 7c 	7c04ff18       r25:24 = combine (#-8, #9) }
    437c:	17 4b 00 00 	00004b17     { immext (#181696)
    4380:	1a c2 1d b0 	b01dc21a       r26 = add (r29, ##181712) }
    4384:	39 41 19 b0 	b0194139     { r25 = add (r25, #9)
    4388:	f0 fe d2 97 	97d2fef0       r17:16 = memd (r18 + #-72) }
    438c:	00 50 11 f5 	f5115000     { r1:0 = combine (r17, r16)
    4390:	62 c2 00 5a 	5a00c262       call 4850 <rtIsNaN> }
    4394:	75 5b 19 c4 	c4195b75     { r21 = addasl (r27, r25, #3)
    4398:	1c 40 00 10 	1000401c       p0 = cmp.eq (r0, #0) ; if (p0.new) jump:nt 43cc <gaussmixp+0x2dc>
    439c:	17 e0 19 74 	7419e017       if (p0.new) r23 = add (r25, #0) }
    43a0:	14 40 79 70 	70794014     { r20 = r25
    43a4:	00 40 00 7f 	7f004000       nop
    43a8:	00 40 00 7f 	7f004000       nop
    43ac:	00 c0 00 7f 	7f00c000       nop }
    43b0:	37 40 14 b0 	b0144037     { r23 = add (r20, #1)
    43b4:	50 42 00 5a 	5a004250       call 4850 <rtIsNaN>
    43b8:	15 41 15 b0 	b0154115       r21 = add (r21, #8)
    43bc:	00 c0 d5 91 	91d5c000       r1:0 = memd (r21 + #0) }
    43c0:	14 60 97 74 	74976014     { if !p0.new r20 = add (r23, #0)
    43c4:	76 40 40 10 	10404076       p0 = cmp.eq (r0, #0) ; if (!p0.new) jump:nt 44ac <gaussmixp+0x3bc>
    43c8:	90 f4 db 32 	32dbf490       if (p0.new) r17:16 = memd (r27 + r20 << #3) }
    43cc:	00 57 58 f2 	f2585700     { p0 = cmp.gt (r24, r23)
    43d0:	12 c8 20 5c 	5c20c812       if !p0.new jump:nt 43f0 <gaussmixp+0x300> }
    43d4:	77 db 17 c4 	c417db77     r23 = addasl (r27, r23, #3)
    43d8:	17 41 17 b0 	b0174117     { r23 = add (r23, #8)
    43dc:	00 c0 d7 91 	91d7c000       r1:0 = memd (r23 + #0) }
    43e0:	21 50 e0 d2 	d2e05021     { p1 = dfcmp.gt (r1:0, r17:16)
    43e4:	00 d2 17 f2 	f217d200       p0 = cmp.eq (r23, r18) }
    43e8:	30 40 01 fd 	fd014030     { if (p1) r17:16 = combine (r1, r0)
    43ec:	f8 e0 ff 5c 	5cffe0f8       if !p0 jump 43d8 <gaussmixp+0x2e8> }
    43f0:	17 40 00 00 	00004017     { immext (#1472)
    43f4:	e0 42 19 75 	751942e0       p0 = cmp.eq (r25, ##1495)
    43f8:	38 41 18 b0 	b0184138       r24 = add (r24, #9)
    43fc:	08 d0 da ab 	abdad008       memd (r26 ++ #8) = r17:16 }
    4400:	12 49 12 b0 	b0124912     { r18 = add (r18, #72)
    4404:	c2 60 ff 5c 	5cff60c2       if !p0 jump 4384 <gaussmixp+0x294>
    4408:	00 40 00 7f 	7f004000       nop
    440c:	00 c0 00 7f 	7f00c000       nop }
    4410:	17 4b 00 00 	00004b17     { immext (#181696)
    4414:	18 42 1d b0 	b01d4218       r24 = add (r29, ##181712)
    4418:	17 40 00 78 	78004017       r23 = #0
    441c:	f9 fb 02 78 	7802fbf9       r25 = #1503 }
    4420:	51 43 17 8c 	8c174351     { r17 = asl (r23, #3)
    4424:	10 40 00 78 	78004010       r16 = #0
    4428:	00 40 00 7f 	7f004000       nop
    442c:	14 c0 d8 91 	91d8c014       r21:20 = memd (r24 + #0) }
    4430:	12 51 13 f3 	f3135112     { r18 = add (r19, r17)
    4434:	11 51 1b f3 	f31b5111       r17 = add (r27, r17)
    4438:	00 40 00 7f 	7f004000       nop
    443c:	00 c0 00 7f 	7f00c000       nop }
    4440:	02 54 15 f5 	f5155402     { r3:2 = combine (r21, r20)
    4444:	92 53 01 5a 	5a015392       call eb64 <__hexagon_subdf3>
    4448:	30 40 10 b0 	b0104030       r16 = add (r16, #1)
    444c:	20 c0 d1 9b 	9bd1c020       r1:0 = memd (r17 ++ #8) }
    4450:	18 61 18 74 	74186118     { if (p0.new) r24 = add (r24, #8)
    4454:	f8 69 78 10 	107869f8       p0 = cmp.eq (r16, #9) ; if (!p0.new) jump:t 4440 <gaussmixp+0x350>
    4458:	08 c0 d2 ab 	abd2c008       memd (r18 ++ #8) = r1:0 }
    445c:	37 41 17 b0 	b0174137     { r23 = add (r23, #9)
    4460:	00 40 73 70 	70734000       r0 = r19
    4464:	e2 d9 75 20 	2075d9e2       if (!cmp.eq (r23.new, r25)) jump:nt 4420 <gaussmixp+0x330> }
    4468:	2c 7e ff 5b 	5bff7e2c     { call 40c0 <b_exp>
    446c:	39 3c e8 50 	50e83c39       r16 = r22 ; r17 = memw (sp + #12) }
    4470:	00 53 16 f5 	f5165300     { r1:0 = combine (r22, r19)
    4474:	48 c2 00 5a 	5a00c248       call 4900 <c_sum> }
    4478:	00 40 76 70 	70764000     { r0 = r22
    447c:	44 c0 00 5a 	5a00c044       call 4500 <d_log> }
    4480:	44 40 9d 91 	919d4044     { r4 = memw (r29 + #8)
    4484:	20 c0 d0 9b 	9bd0c020       r1:0 = memd (r16 ++ #8) }
    4488:	22 c0 c4 9b 	9bc4c022     r3:2 = memd (r4 ++ #8)
    448c:	1a 53 01 5a 	5a01531a     { call eac0 <__hexagon_adddf3>
    4490:	02 c4 9d a1 	a19dc402       memw (r29 + #8) = r4 }
    4494:	68 53 01 5a 	5a015368     { call eb64 <__hexagon_subdf3>
    4498:	a2 c4 c0 49 	49c0c4a2       r3:2 = memd (gp + #296) }
    449c:	22 40 9d 91 	919d4022     { r2 = memw (r29 + #4)
    44a0:	08 c0 d1 ab 	abd1c008       memd (r17 ++ #8) = r1:0 }
    44a4:	ee c8 72 14 	1472c8ee     p0 = cmp.eq (r2, r16) ; if (!p0.new) jump:nt 4480 <gaussmixp+0x390>
    44a8:	cc d1 01 58 	5801d1cc     jump e840 <__restore_r16_through_r27_and_deallocframe>
    44ac:	00 58 17 f2 	f2175800     { p0 = cmp.eq (r23, r24)
    44b0:	82 78 ff 5c 	5cff7882       if !p0.new jump:t 43b0 <gaussmixp+0x2c0>
    44b4:	38 61 18 74 	74186138       if (p0.new) r24 = add (r24, #9)
    44b8:	88 f0 da ab 	abdaf088       if (p0.new) memd (r26 ++ #8) = r17:16 }
    44bc:	17 40 00 00 	00004017     { immext (#1472)
    44c0:	e0 42 19 75 	751942e0       p0 = cmp.eq (r25, ##1495)
    44c4:	64 78 ff 5c 	5cff7864       if !p0.new jump:t 4384 <gaussmixp+0x294>
    44c8:	12 c9 12 b0 	b012c912       r18 = add (r18, #72) }
    44cc:	a2 ff ff 59 	59ffffa2     jump 4410 <gaussmixp+0x320>

000044d0 <gaussmixp_initialize>:
    44d0:	d0 41 00 5a 	5a0041d0     { call 4870 <rt_InitInfAndNaN>
    44d4:	00 3c 80 68 	68803c00       r0 = #8 ; allocframe (#0) }
    44d8:	00 40 00 78 	78004000     { r0 = #0
    44dc:	19 c2 a0 48 	48a0c219       memb (gp + #25) = r0.new }
    44e0:	1e c0 1e 96 	961ec01e     dealloc_return
    44e4:	00 c0 00 7f 	7f00c000     nop
    44e8:	00 c0 00 7f 	7f00c000     nop
    44ec:	00 c0 00 7f 	7f00c000     nop

000044f0 <gaussmixp_terminate>:
    44f0:	00 c0 9f 52 	529fc000     jumpr r31
    44f4:	00 c0 00 7f 	7f00c000     nop
    44f8:	00 c0 00 7f 	7f00c000     nop
    44fc:	00 c0 00 7f 	7f00c000     nop

00004500 <d_log>:
    4500:	10 60 00 73 	73006010     { r17:16 = combine (r0, #0)
    4504:	00 40 00 7f 	7f004000       nop
    4508:	10 1c f4 eb 	ebf41c10       memd (sp + #-16) = r17:16 ; allocframe (#8) }
    450c:	00 c0 00 7f 	7f00c000     nop
    4510:	02 40 00 78 	78004002     { r2 = #0
    4514:	f8 57 00 5a 	5a0057f8       call 7500 <_Log>
    4518:	30 40 10 b0 	b0104030       r16 = add (r16, #1)
    451c:	00 c0 d1 91 	91d1c000       r1:0 = memd (r17 + #0) }
    4520:	e0 54 10 75 	751054e0     { p0 = cmp.eq (r16, #167)
    4524:	f8 78 ff 5c 	5cff78f8       if !p0.new jump:t 4510 <d_log+0x10>
    4528:	08 c0 d1 ab 	abd1c008       memd (r17 ++ #8) = r1:0 }
    452c:	40 1f 04 3e 	3e041f40     r17:16 = memd (sp + #0) ; dealloc_return

00004530 <c_log>:
    4530:	10 60 00 73 	73006010     { r17:16 = combine (r0, #0)
    4534:	00 40 00 7f 	7f004000       nop
    4538:	10 1c f4 eb 	ebf41c10       memd (sp + #-16) = r17:16 ; allocframe (#8) }
    453c:	00 c0 00 7f 	7f00c000     nop
    4540:	02 40 00 78 	78004002     { r2 = #0
    4544:	e0 57 00 5a 	5a0057e0       call 7500 <_Log>
    4548:	30 40 10 b0 	b0104030       r16 = add (r16, #1)
    454c:	00 c0 d1 91 	91d1c000       r1:0 = memd (r17 + #0) }
    4550:	80 4d 10 75 	75104d80     { p0 = cmp.eq (r16, #108)
    4554:	f8 78 ff 5c 	5cff78f8       if !p0.new jump:t 4540 <c_log+0x10>
    4558:	08 c0 d1 ab 	abd1c008       memd (r17 ++ #8) = r1:0 }
    455c:	40 1f 04 3e 	3e041f40     r17:16 = memd (sp + #0) ; dealloc_return

00004560 <b_log>:
    4560:	10 60 00 73 	73006010     { r17:16 = combine (r0, #0)
    4564:	00 40 00 7f 	7f004000       nop
    4568:	10 1c f4 eb 	ebf41c10       memd (sp + #-16) = r17:16 ; allocframe (#8) }
    456c:	00 c0 00 7f 	7f00c000     nop
    4570:	02 40 00 78 	78004002     { r2 = #0
    4574:	c8 57 00 5a 	5a0057c8       call 7500 <_Log>
    4578:	30 40 10 b0 	b0104030       r16 = add (r16, #1)
    457c:	00 c0 d1 91 	91d1c000       r1:0 = memd (r17 + #0) }
    4580:	f8 69 78 10 	107869f8     { p0 = cmp.eq (r16, #9) ; if (!p0.new) jump:t 4570 <b_log+0x10>
    4584:	08 c0 d1 ab 	abd1c008       memd (r17 ++ #8) = r1:0 }
    4588:	40 1f 04 3e 	3e041f40     r17:16 = memd (sp + #0) ; dealloc_return
    458c:	00 c0 00 7f 	7f00c000     nop

00004590 <rt_powd_snf>:
    4590:	10 40 01 f5 	f5014010     { r17:16 = combine (r1, r0)
    4594:	20 1c f4 eb 	ebf41c20       memd (sp + #-16) = r17:16 ; allocframe (#16) }
    4598:	12 42 03 f5 	f5034212     { r19:18 = combine (r3, r2)
    459c:	5c 41 00 5a 	5a00415c       call 4850 <rtIsNaN>
    45a0:	00 d2 dd a1 	a1ddd200       memd (r29 + #0) = r19:18 }
    45a4:	00 52 13 f5 	f5135200     { r1:0 = combine (r19, r18)
    45a8:	0a c0 00 10 	1000c00a       p0 = cmp.eq (r0, #0) ; if (p0.new) jump:nt 45b8 <rt_powd_snf+0x28> }
    45ac:	20 c4 c0 49 	49c0c420     r1:0 = memd (gp + #264)
    45b0:	0c 1e 05 3e 	3e051e0c     r19:18 = memd (sp + #0) ; r17:16 = memd (sp + #8)
    45b4:	1e c0 1e 96 	961ec01e     dealloc_return
    45b8:	4c c1 00 5a 	5a00c14c     call 4850 <rtIsNaN>
    45bc:	f8 60 70 10 	107060f8     { p0 = cmp.eq (r0, #0) ; if (!p0.new) jump:t 45ac <rt_powd_snf+0x1c>
    45c0:	2a 41 00 5a 	5a00412a       call 4810 <rtIsInf>
    45c4:	00 d2 13 f5 	f513d200       r1:0 = combine (r19, r18) }
    45c8:	00 40 70 70 	70704000     { r0 = r16
    45cc:	1a 40 00 10 	1000401a       p0 = cmp.eq (r0, #0) ; if (p0.new) jump:nt 45fc <rt_powd_snf+0x6c>
    45d0:	82 c4 c0 49 	49c0c482       r3:2 = memd (gp + #288) }
    45d4:	21 df d1 8c 	8cd1df21     r1 = clrbit (r17, #31)
    45d8:	00 c2 e0 d2 	d2e0c200     p0 = dfcmp.eq (r1:0, r3:2)
    45dc:	e8 e0 df 5c 	5cdfe0e8     if (p0) jump 45ac <rt_powd_snf+0x1c>
    45e0:	20 42 e0 d2 	d2e04220     { p0 = dfcmp.gt (r1:0, r3:2)
    45e4:	c0 c4 c0 49 	49c0c4c0       r1:0 = memd (gp + #304) }
    45e8:	5c c0 20 5c 	5c20c05c     if !p0 jump 46a0 <rt_powd_snf+0x110>
    45ec:	20 c0 f2 d2 	d2f2c020     p0 = dfcmp.gt (r19:18, r1:0)
    45f0:	e0 e0 ff 5c 	5cffe0e0     if !p0 jump 45b0 <rt_powd_snf+0x20>
    45f4:	de 7f ff 59 	59ff7fde     { jump 45b0 <rt_powd_snf+0x20>
    45f8:	00 c4 c0 49 	49c0c400       r1:0 = memd (gp + #256) }
    45fc:	c2 c4 c0 49 	49c0c4c2     r3:2 = memd (gp + #304)
    4600:	04 42 03 f5 	f5034204     { r5:4 = combine (r3, r2)
    4604:	23 5f d3 8c 	8cd35f23       r3 = clrbit (r19, #31)
    4608:	02 c0 72 70 	7072c002       r2 = r18 }
    460c:	00 44 e2 d2 	d2e24400     { p0 = dfcmp.eq (r3:2, r5:4)
    4610:	80 c4 c0 49 	49c0c480       r1:0 = memd (gp + #288) }
    4614:	12 c0 00 5c 	5c00c012     if (p0) jump 4638 <rt_powd_snf+0xa8>
    4618:	00 c0 e2 d2 	d2e2c000     p0 = dfcmp.eq (r3:2, r1:0)
    461c:	12 c0 20 5c 	5c20c012     if !p0 jump 4640 <rt_powd_snf+0xb0>
    4620:	20 c4 f2 d2 	d2f2c420     p0 = dfcmp.gt (r19:18, r5:4)
    4624:	c6 60 df 5c 	5cdf60c6     { if (p0) jump 45b0 <rt_powd_snf+0x20>
    4628:	8e 53 01 5a 	5a01538e       call ed40 <__hexagon_divdf3>
    462c:	00 50 11 fd 	fd115000       if (p0) r1:0 = combine (r17, r16)
    4630:	02 d0 11 f5 	f511d002       r3:2 = combine (r17, r16) }
    4634:	be ff ff 59 	59ffffbe     jump 45b0 <rt_powd_snf+0x20>
    4638:	bc 7f ff 59 	59ff7fbc     { jump 45b0 <rt_powd_snf+0x20>
    463c:	80 c4 c0 49 	49c0c480       r1:0 = memd (gp + #288) }
    4640:	e0 c4 c0 49 	49c0c4e0     r1:0 = memd (gp + #312)
    4644:	00 40 f2 d2 	d2f24000     { p0 = dfcmp.eq (r19:18, r1:0)
    4648:	02 50 11 f5 	f5115002       r3:2 = combine (r17, r16)
    464c:	00 c5 c0 49 	49c0c500       r1:0 = memd (gp + #320) }
    4650:	30 c0 00 5c 	5c00c030     if (p0) jump 46b0 <rt_powd_snf+0x120>
    4654:	00 c0 f2 d2 	d2f2c000     p0 = dfcmp.eq (r19:18, r1:0)
    4658:	0c c0 20 5c 	5c20c00c     if !p0 jump 4670 <rt_powd_snf+0xe0>
    465c:	40 44 f0 d2 	d2f04440     { p0 = dfcmp.ge (r17:16, r5:4)
    4660:	00 d0 11 f5 	f511d000       r1:0 = combine (r17, r16) }
    4664:	2c 40 00 5c 	5c00402c     { if (p0) jump 46bc <rt_powd_snf+0x12c>
    4668:	12 40 dd 41 	41dd4012       if (p0) r19:18 = memd (r29 + #0)
    466c:	30 c0 dd 41 	41ddc030       if (p0) r17:16 = memd (r29 + #8) }
    4670:	c0 c4 c0 49 	49c0c4c0     r1:0 = memd (gp + #304)
    4674:	20 50 e0 d2 	d2e05020     { p0 = dfcmp.gt (r1:0, r17:16)
    4678:	00 d2 13 f5 	f513d200       r1:0 = combine (r19, r18) }
    467c:	08 40 20 5c 	5c204008     { if !p0 jump 468c <rt_powd_snf+0xfc>
    4680:	7a c7 00 5a 	5a00c77a       call 5570 <floor> }
    4684:	20 c0 f2 d2 	d2f2c020     p0 = dfcmp.gt (r19:18, r1:0)
    4688:	92 e0 df 5c 	5cdfe092     if (p0) jump 45ac <rt_powd_snf+0x1c>
    468c:	00 50 11 f5 	f5115000     { r1:0 = combine (r17, r16)
    4690:	02 52 13 f5 	f5135202       r3:2 = combine (r19, r18)
    4694:	05 1e 0c 3e 	3e0c1e05       r17:16 = memd (sp + #8) ; r19:18 = memd (sp + #0) }
    4698:	64 4d 00 58 	58004d64     { jump 6160 <pow>
    469c:	1e c0 1e 90 	901ec01e       deallocframe }
    46a0:	c0 c4 c0 49 	49c0c4c0     r1:0 = memd (gp + #304)
    46a4:	20 c0 f2 d2 	d2f2c020     p0 = dfcmp.gt (r19:18, r1:0)
    46a8:	84 60 df 5c 	5cdf6084     { if (p0) jump 45b0 <rt_powd_snf+0x20>
    46ac:	a6 ff ff 59 	59ffffa6       jump 45f4 <rt_powd_snf+0x64> }
    46b0:	00 50 11 f5 	f5115000     { r1:0 = combine (r17, r16)
    46b4:	98 d4 01 5a 	5a01d498       call efe0 <__hexagon_muldf3> }
    46b8:	7c ff ff 59 	59ffff7c     jump 45b0 <rt_powd_snf+0x20>
    46bc:	9a 51 00 58 	5800519a     { jump 69f0 <sqrt>
    46c0:	1e c0 1e 90 	901ec01e       deallocframe }
    46c4:	00 40 00 7f 	7f004000     { nop
    46c8:	00 40 00 7f 	7f004000       nop
    46cc:	00 c0 00 7f 	7f00c000       nop }

000046d0 <power>:
    46d0:	10 60 01 73 	73016010     { r17:16 = combine (r1, #0)
    46d4:	20 1c f4 eb 	ebf41c20       memd (sp + #-16) = r17:16 ; allocframe (#16) }
    46d8:	00 40 00 7f 	7f004000     { nop
    46dc:	05 2a 0a 70 	700a2a05       r18 = r0 ; memd (sp + #0) = r19:18 }
    46e0:	30 40 10 b0 	b0104030     { r16 = add (r16, #1)
    46e4:	58 7f ff 5b 	5bff7f58       call 4590 <rt_powd_snf>
    46e8:	20 40 d2 9b 	9bd24020       r1:0 = memd (r18 ++ #8)
    46ec:	22 c5 c0 49 	49c0c522       r3:2 = memd (gp + #328) }
    46f0:	80 4d 10 75 	75104d80     { p0 = cmp.eq (r16, #108)
    46f4:	f8 78 ff 5c 	5cff78f8       if !p0.new jump:t 46e0 <power+0x10>
    46f8:	08 c0 d1 ab 	abd1c008       memd (r17 ++ #8) = r1:0 }
    46fc:	0c 1e 05 3e 	3e051e0c     r19:18 = memd (sp + #0) ; r17:16 = memd (sp + #8)
    4700:	1e c0 1e 96 	961ec01e     dealloc_return
    4704:	00 40 00 7f 	7f004000     { nop
    4708:	00 40 00 7f 	7f004000       nop
    470c:	00 c0 00 7f 	7f00c000       nop }

00004710 <b_power>:
    4710:	10 60 01 73 	73016010     { r17:16 = combine (r1, #0)
    4714:	20 1c f4 eb 	ebf41c20       memd (sp + #-16) = r17:16 ; allocframe (#16) }
    4718:	93 4e 43 78 	78434e93     { r19 = #18036
    471c:	05 2a 0a 70 	700a2a05       r18 = r0 ; memd (sp + #0) = r19:18 }
    4720:	30 40 10 b0 	b0104030     { r16 = add (r16, #1)
    4724:	38 7f ff 5b 	5bff7f38       call 4590 <rt_powd_snf>
    4728:	20 40 d2 9b 	9bd24020       r1:0 = memd (r18 ++ #8)
    472c:	e2 c4 c0 49 	49c0c4e2       r3:2 = memd (gp + #312) }
    4730:	f8 6b 78 14 	14786bf8     { p0 = cmp.eq (r16, r19) ; if (!p0.new) jump:t 4720 <b_power+0x10>
    4734:	08 c0 d1 ab 	abd1c008       memd (r17 ++ #8) = r1:0 }
    4738:	0c 1e 05 3e 	3e051e0c     r19:18 = memd (sp + #0) ; r17:16 = memd (sp + #8)
    473c:	1e c0 1e 96 	961ec01e     dealloc_return

00004740 <b_repmat>:
    4740:	17 40 00 00 	00004017     { immext (#1472)
    4744:	e4 c3 00 7c 	7c00c3e4       r5:4 = combine (##1503, #0) }
    4748:	51 40 00 69 	69004051     { loop0 (4750 <b_repmat+0x10>, #9)
    474c:	02 c1 00 f5 	f500c102       r3:2 = combine (r0, r1) }
    4750:	26 c0 c3 9b 	9bc3c026     r7:6 = memd (r3 ++ #8)
    4754:	00 80 00 7f 	7f008000     { nop
    4758:	08 c6 c2 ab 	abc2c608       memd (r2 ++ #8) = r7:6 }:endloop0
    475c:	01 49 01 b0 	b0014901     { r1 = add (r1, #72)
    4760:	24 41 04 b0 	b0044124       r4 = add (r4, #9)
    4764:	f6 c5 72 20 	2072c5f6       if (!cmp.eq (r4.new, r5)) jump:nt 4748 <b_repmat+0x8> }
    4768:	00 c0 9f 52 	529fc000     jumpr r31
    476c:	00 c0 00 7f 	7f00c000     nop

00004770 <repmat>:
    4770:	03 40 00 78 	78004003     { r3 = #0
    4774:	e4 fb 02 78 	7802fbe4       r4 = #1503 }
    4778:	51 40 00 69 	69004051     { loop0 (4780 <repmat+0x10>, #9)
    477c:	02 c0 61 70 	7061c002       r2 = r1 }
    4780:	06 c0 c0 91 	91c0c006     r7:6 = memd (r0 + #0)
    4784:	00 80 00 7f 	7f008000     { nop
    4788:	08 c6 c2 ab 	abc2c608       memd (r2 ++ #8) = r7:6 }:endloop0
    478c:	01 49 01 b0 	b0014901     { r1 = add (r1, #72)
    4790:	93 20 80 20 	20802093       r0 = add (r0, #8) ; r3 = add (r3, #9) }
    4794:	f2 c4 73 14 	1473c4f2     p0 = cmp.eq (r3, r4) ; if (!p0.new) jump:nt 4778 <repmat+0x8>
    4798:	00 c0 9f 52 	529fc000     jumpr r31
    479c:	00 c0 00 7f 	7f00c000     nop

000047a0 <rtGetInf>:
    47a0:	1d 7f fd bf 	bffd7f1d     { r29 = add (r29, #-8)
    47a4:	40 c5 c0 49 	49c0c540       r1:0 = memd (gp + #336) }
    47a8:	1d 41 1d b0 	b01d411d     { r29 = add (r29, #8)
    47ac:	00 c0 9f 52 	529fc000       jumpr r31 }

000047b0 <rtGetInfF>:
    47b0:	00 40 f8 07 	07f84000     { immext (#2139095040)
    47b4:	c0 3f 00 48 	48003fc0       r0 = ##2139095040 ; jumpr lr }
    47b8:	00 40 00 7f 	7f004000     { nop
    47bc:	00 c0 00 7f 	7f00c000       nop }

000047c0 <rtGetMinusInf>:
    47c0:	1d 7f fd bf 	bffd7f1d     { r29 = add (r29, #-8)
    47c4:	60 c5 c0 49 	49c0c560       r1:0 = memd (gp + #344) }
    47c8:	1d 41 1d b0 	b01d411d     { r29 = add (r29, #8)
    47cc:	00 c0 9f 52 	529fc000       jumpr r31 }

000047d0 <rtGetMinusInfF>:
    47d0:	00 40 f8 0f 	0ff84000     { immext (#4286578688)
    47d4:	c0 3f 00 48 	48003fc0       r0 = ##4286578688 ; jumpr lr }
    47d8:	00 c0 00 7f 	7f00c000     nop
    47dc:	00 c0 00 7f 	7f00c000     nop

000047e0 <rtGetNaN>:
    47e0:	1d 7f fd bf 	bffd7f1d     { r29 = add (r29, #-8)
    47e4:	80 c5 c0 49 	49c0c580       r1:0 = memd (gp + #352) }
    47e8:	1d 41 1d b0 	b01d411d     { r29 = add (r29, #8)
    47ec:	00 c0 9f 52 	529fc000       jumpr r31 }

000047f0 <rtGetNaNF>:
    47f0:	1d 7f fd bf 	bffd7f1d     { r29 = add (r29, #-8)
    47f4:	00 40 fc 0f 	0ffc4000       immext (#4290772992)
    47f8:	00 c0 00 78 	7800c000       r0 = ##-4194304 }
    47fc:	1d 41 1d b0 	b01d411d     { r29 = add (r29, #8)
    4800:	00 c0 9f 52 	529fc000       jumpr r31 }
    4804:	00 c0 00 7f 	7f00c000     nop
    4808:	00 c0 00 7f 	7f00c000     nop
    480c:	00 c0 00 7f 	7f00c000     nop

00004810 <rtIsInf>:
    4810:	02 c4 c0 49 	49c0c402     r3:2 = memd (gp + #256)
    4814:	00 c2 e0 d2 	d2e0c200     p0 = dfcmp.eq (r1:0, r3:2)
    4818:	20 40 00 7e 	7e004020     { if (p0) r0 = #1
    481c:	00 40 5f 53 	535f4000       if (p0) jumpr r31
    4820:	42 c4 c0 49 	49c0c442       r3:2 = memd (gp + #272) }
    4824:	00 c2 e0 d2 	d2e0c200     p0 = dfcmp.eq (r1:0, r3:2)
    4828:	20 40 00 7a 	7a004020     { r0 = mux (p0, #1, #0)
    482c:	00 c0 9f 52 	529fc000       jumpr r31 }

00004830 <rtIsInfF>:
    4830:	41 c5 80 49 	4980c541     r1 = memw (gp + #168)
    4834:	60 c1 e0 c7 	c7e0c160     p0 = sfcmp.eq (r0, r1)
    4838:	20 40 00 7e 	7e004020     { if (p0) r0 = #1
    483c:	00 40 5f 53 	535f4000       if (p0) jumpr r31
    4840:	61 c5 80 49 	4980c561       r1 = memw (gp + #172) }
    4844:	60 c1 e0 c7 	c7e0c160     p0 = sfcmp.eq (r0, r1)
    4848:	20 40 00 7a 	7a004020     { r0 = mux (p0, #1, #0)
    484c:	00 c0 9f 52 	529fc000       jumpr r31 }

00004850 <rtIsNaN>:
    4850:	00 c0 e0 d2 	d2e0c000     p0 = dfcmp.eq (r1:0, r1:0)
    4854:	00 60 00 7a 	7a006000     { r0 = mux (p0, #0, #1)
    4858:	00 c0 9f 52 	529fc000       jumpr r31 }
    485c:	00 c0 00 7f 	7f00c000     nop

00004860 <rtIsNaNF>:
    4860:	60 c0 e0 c7 	c7e0c060     p0 = sfcmp.eq (r0, r0)
    4864:	00 60 00 7a 	7a006000     { r0 = mux (p0, #0, #1)
    4868:	00 c0 9f 52 	529fc000       jumpr r31 }
    486c:	00 c0 00 7f 	7f00c000     nop

00004870 <rt_InitInfAndNaN>:
    4870:	b8 7f ff 5b 	5bff7fb8     { call 47e0 <rtGetNaN>
    4874:	00 c0 9d a0 	a09dc000       allocframe (#0) }
    4878:	bc 7f ff 5b 	5bff7fbc     { call 47f0 <rtGetNaNF>
    487c:	21 c0 c0 48 	48c0c021       memd (gp + #264) = r1:0 }
    4880:	90 7f ff 5b 	5bff7f90     { call 47a0 <rtGetInf>
    4884:	29 c0 80 48 	4880c029       memw (gp + #164) = r0 }
    4888:	94 7f ff 5b 	5bff7f94     { call 47b0 <rtGetInfF>
    488c:	20 c0 c0 48 	48c0c020       memd (gp + #256) = r1:0 }
    4890:	98 7f ff 5b 	5bff7f98     { call 47c0 <rtGetMinusInf>
    4894:	2a c0 80 48 	4880c02a       memw (gp + #168) = r0 }
    4898:	9c 7f ff 5b 	5bff7f9c     { call 47d0 <rtGetMinusInfF>
    489c:	22 c0 c0 48 	48c0c022       memd (gp + #272) = r1:0 }
    48a0:	2b c0 80 48 	4880c02b     memw (gp + #172) = r0
    48a4:	1e c0 1e 96 	961ec01e     dealloc_return
    48a8:	00 c0 00 7f 	7f00c000     nop
    48ac:	00 c0 00 7f 	7f00c000     nop

000048b0 <b_sum>:
    48b0:	9c 4f 01 5a 	5a014f9c     { call e7e8 <__save_r16_through_r21>
    48b4:	03 c0 9d a0 	a09dc003       allocframe (#24) }
    48b8:	14 40 61 70 	70614014     { r20 = r1
    48bc:	d5 7b 02 78 	78027bd5       r21 = #1502
    48c0:	0b 3a 0a 30 	300a3a0b       r18 = r0 ; r19 = #-1 }
    48c4:	11 5f f2 b2 	b2f25f11     { r17 = add (r18, #12024)
    48c8:	10 40 00 78 	78004010       r16 = #0
    48cc:	00 c0 d2 91 	91d2c000       r1:0 = memd (r18 + #0) }
    48d0:	30 40 10 b0 	b0104030     { r16 = add (r16, #1)
    48d4:	f8 50 01 5a 	5a0150f8       call eac0 <__hexagon_adddf3>
    48d8:	11 5f f1 b2 	b2f15f11       r17 = add (r17, #12024)
    48dc:	02 c0 d1 91 	91d1c002       r3:2 = memd (r17 + #0) }
    48e0:	12 61 12 74 	74126112     { if (p0.new) r18 = add (r18, #8)
    48e4:	f8 6b 78 10 	10786bf8       p0 = cmp.eq (r16, #11) ; if (!p0.new) jump:t 48d0 <b_sum+0x20>
    48e8:	88 e0 d4 ab 	abd4e088       if (p0.new) memd (r20 ++ #8) = r1:0 }
    48ec:	33 40 13 b0 	b0134033     { r19 = add (r19, #1)
    48f0:	ec d5 73 20 	2073d5ec       if (!cmp.eq (r19.new, r21)) jump:nt 48c4 <b_sum+0x14> }
    48f4:	ae cf 01 58 	5801cfae     jump e850 <__restore_r16_through_r21_and_deallocframe>
    48f8:	00 40 00 7f 	7f004000     { nop
    48fc:	00 c0 00 7f 	7f00c000       nop }

00004900 <c_sum>:
    4900:	74 4f 01 5a 	5a014f74     { call e7e8 <__save_r16_through_r21>
    4904:	03 c0 9d a0 	a09dc003       allocframe (#24) }
    4908:	12 41 00 b0 	b0004112     { r18 = add (r0, #8)
    490c:	d5 7b 02 78 	78027bd5       r21 = #1502
    4910:	0b 3a 1c 30 	301c3a0b       r20 = r1 ; r19 = #-1 }
    4914:	10 60 12 73 	73126010     { r17:16 = combine (r18, #0)
    4918:	00 40 00 7f 	7f004000       nop
    491c:	e0 ff d2 97 	97d2ffe0       r1:0 = memd (r18 + #-8) }
    4920:	30 40 10 b0 	b0104030     { r16 = add (r16, #1)
    4924:	d0 50 01 5a 	5a0150d0       call eac0 <__hexagon_adddf3>
    4928:	22 c0 d1 9b 	9bd1c022       r3:2 = memd (r17 ++ #8) }
    492c:	12 69 12 74 	74126912     { if (p0.new) r18 = add (r18, #72)
    4930:	fa 68 78 10 	107868fa       p0 = cmp.eq (r16, #8) ; if (!p0.new) jump:t 4920 <c_sum+0x20>
    4934:	88 e0 d4 ab 	abd4e088       if (p0.new) memd (r20 ++ #8) = r1:0 }
    4938:	33 41 13 b0 	b0134133     { r19 = add (r19, #9)
    493c:	ee d5 73 20 	2073d5ee       if (!cmp.eq (r19.new, r21)) jump:nt 4914 <c_sum+0x14> }
    4940:	88 cf 01 58 	5801cf88     jump e850 <__restore_r16_through_r21_and_deallocframe>
    4944:	00 40 00 7f 	7f004000     { nop
    4948:	00 40 00 7f 	7f004000       nop
    494c:	00 c0 00 7f 	7f00c000       nop }

00004950 <sum>:
    4950:	4c 4f 01 5a 	5a014f4c     { call e7e8 <__save_r16_through_r21>
    4954:	03 c0 9d a0 	a09dc003       allocframe (#24) }
    4958:	14 40 61 70 	70614014     { r20 = r1
    495c:	0b 3a 0a 30 	300a3a0b       r18 = r0 ; r19 = #-1 }
    4960:	11 49 12 b0 	b0124911     { r17 = add (r18, #72)
    4964:	10 40 00 78 	78004010       r16 = #0
    4968:	00 40 00 7f 	7f004000       nop
    496c:	00 c0 d2 91 	91d2c000       r1:0 = memd (r18 + #0) }
    4970:	30 40 10 b0 	b0104030     { r16 = add (r16, #1)
    4974:	a8 50 01 5a 	5a0150a8       call eac0 <__hexagon_adddf3>
    4978:	11 49 11 b0 	b0114911       r17 = add (r17, #72)
    497c:	02 c0 d1 91 	91d1c002       r3:2 = memd (r17 + #0) }
    4980:	12 61 12 74 	74126112     { if (p0.new) r18 = add (r18, #8)
    4984:	f8 6b 78 10 	10786bf8       p0 = cmp.eq (r16, #11) ; if (!p0.new) jump:t 4970 <sum+0x20>
    4988:	88 e0 d4 ab 	abd4e088       if (p0.new) memd (r20 ++ #8) = r1:0 }
    498c:	33 40 13 b0 	b0134033     { r19 = add (r19, #1)
    4990:	ea c8 73 24 	2473c8ea       if (!cmp.eq (r19.new, #8)) jump:nt 4960 <sum+0x10> }
    4994:	5e cf 01 58 	5801cf5e     jump e850 <__restore_r16_through_r21_and_deallocframe>
    4998:	00 c0 00 7f 	7f00c000     nop
    499c:	00 c0 00 7f 	7f00c000     nop

000049a0 <voicebox>:
    49a0:	20 c3 20 49 	4920c320     r0 = memub (gp + #25)
    49a4:	00 40 00 75 	75004000     { p0 = cmp.eq (r0, #0)
    49a8:	00 48 7f 53 	537f4800       if !p0.new jumpr:nt r31
    49ac:	3c 4d 00 00 	00004d3c       immext (#216832)
    49b0:	80 f8 c0 9f 	9fc0f880       if !p0.new r1:0 = memd (##216832) }
    49b4:	2b 41 00 69 	6900412b     { loop0 (49c8 <voicebox+0x28>, #7)
    49b8:	3a 4d 00 00 	00004d3a       immext (#216704)
    49bc:	03 c4 00 78 	7800c403       r3 = ##216736 }
    49c0:	00 4f 00 00 	00004f00     { immext (#245760)
    49c4:	00 e0 23 73 	7323e000       r1:0 = combine (##245760, r3) }
    49c8:	22 80 01 9b 	9b018022     { r2 = memb (r1 ++ #1)
    49cc:	08 c2 a0 ab 	aba0c208       memb (r0 ++ #1) = r2.new }:endloop0
    49d0:	82 42 00 69 	69004282     { loop0 (49f0 <voicebox+0x50>, #18)
    49d4:	00 44 00 00 	00004400       immext (#65536)
    49d8:	10 28 02 28 	28022810       r2 = ##65536 ; r0 = #1 }
    49dc:	00 44 00 00 	00004400     { immext (#65536)
    49e0:	01 43 00 78 	78004301       r1 = ##65560
    49e4:	19 c0 00 48 	4800c019       memb (gp + #25) = r0 }
    49e8:	3a 4d 00 00 	00004d3a     { immext (#216704)
    49ec:	e0 c4 00 78 	7800c4e0       r0 = ##216743 }
    49f0:	25 40 02 9b 	9b024025     { r5 = memb (r2 ++ #1)
    49f4:	24 c0 01 9b 	9b01c024       r4 = memb (r1 ++ #1) }
    49f8:	20 80 00 b0 	b0008020     { r0 = add (r0, #1)
    49fc:	00 45 00 a1 	a1004500       memb (r0 + #0) = r5
    4a00:	12 c4 00 a1 	a100c412       memb (r0 + #18) = r4 }:endloop0
    4a04:	00 44 00 00 	00004400     { immext (#65536)
    4a08:	01 46 00 78 	78004601       r1 = ##65584
    4a0c:	3b 4d 00 00 	00004d3b       immext (#216768)
    4a10:	60 c1 00 78 	7800c160       r0 = ##216779 }
    4a14:	6b c0 00 69 	6900c06b     loop0 (4a18 <voicebox+0x78>, #15)
    4a18:	22 80 01 9b 	9b018022     { r2 = memb (r1 ++ #1)
    4a1c:	08 c2 a0 ab 	aba0c208       memb (r0 ++ #1) = r2.new }:endloop0
    4a20:	01 44 00 00 	00004401     { immext (#65600)
    4a24:	01 40 00 78 	78004001       r1 = ##65600
    4a28:	3b 4d 00 00 	00004d3b       immext (#216768)
    4a2c:	40 c3 00 78 	7800c340       r0 = ##216794 }
    4a30:	e8 c0 00 69 	6900c0e8     loop0 (4a34 <voicebox+0x94>, #28)
    4a34:	22 80 01 9b 	9b018022     { r2 = memb (r1 ++ #1)
    4a38:	08 c2 a0 ab 	aba0c208       memb (r0 ++ #1) = r2.new }:endloop0
    4a3c:	a0 4c 00 78 	78004ca0     { r0 = #101
    4a40:	01 4f 00 78 	78004f01       r1 = #120
    4a44:	c2 45 00 78 	780045c2       r2 = #46
    4a48:	a4 c5 c0 49 	49c0c5a4       r5:4 = memd (gp + #360) }
    4a4c:	c4 45 c0 49 	49c045c4     { r5:4 = memd (gp + #368)
    4a50:	0c c4 c3 a1 	a1c3c40c       memd (r3 + #96) = r5:4 }
    4a54:	e4 45 c0 49 	49c045e4     { r5:4 = memd (gp + #376)
    4a58:	0d c4 c3 a1 	a1c3c40d       memd (r3 + #104) = r5:4 }
    4a5c:	58 41 03 a1 	a1034158     { memb (r3 + #88) = r1
    4a60:	0e c4 c3 a1 	a1c3c40e       memd (r3 + #112) = r5:4 }
    4a64:	59 40 03 a1 	a1034059     { memb (r3 + #89) = r0
    4a68:	57 c0 03 a1 	a103c057       memb (r3 + #87) = r0 }
    4a6c:	84 44 c0 49 	49c04484     { r5:4 = memd (gp + #288)
    4a70:	00 c6 c0 49 	49c0c600       r1:0 = memd (gp + #384) }
    4a74:	0f 40 c3 a1 	a1c3400f     { memd (r3 + #120) = r1:0
    4a78:	10 c4 c3 a1 	a1c3c410       memd (r3 + #128) = r5:4 }
    4a7c:	20 46 c0 49 	49c04620     { r1:0 = memd (gp + #392)
    4a80:	44 c6 c0 49 	49c0c644       r5:4 = memd (gp + #400) }
    4a84:	11 40 c3 a1 	a1c34011     { memd (r3 + #136) = r1:0
    4a88:	12 c4 c3 a1 	a1c3c412       memd (r3 + #144) = r5:4 }
    4a8c:	60 46 c0 49 	49c04660     { r1:0 = memd (gp + #408)
    4a90:	84 c6 c0 49 	49c0c684       r5:4 = memd (gp + #416) }
    4a94:	13 40 c3 a1 	a1c34013     { memd (r3 + #152) = r1:0
    4a98:	14 c4 c3 a1 	a1c3c414       memd (r3 + #160) = r5:4 }
    4a9c:	a0 46 c0 49 	49c046a0     { r1:0 = memd (gp + #424)
    4aa0:	c4 c6 c0 49 	49c0c6c4       r5:4 = memd (gp + #432) }
    4aa4:	15 40 c3 a1 	a1c34015     { memd (r3 + #168) = r1:0
    4aa8:	16 c4 c3 a1 	a1c3c416       memd (r3 + #176) = r5:4 }
    4aac:	e0 46 c0 49 	49c046e0     { r1:0 = memd (gp + #440)
    4ab0:	44 c6 c0 49 	49c0c644       r5:4 = memd (gp + #400) }
    4ab4:	17 40 c3 a1 	a1c34017     { memd (r3 + #184) = r1:0
    4ab8:	18 c4 c3 a1 	a1c3c418       memd (r3 + #192) = r5:4 }
    4abc:	00 47 c0 49 	49c04700     { r1:0 = memd (gp + #448)
    4ac0:	e4 c4 c0 49 	49c0c4e4       r5:4 = memd (gp + #312) }
    4ac4:	19 40 c3 a1 	a1c34019     { memd (r3 + #200) = r1:0
    4ac8:	1a c4 c3 a1 	a1c3c41a       memd (r3 + #208) = r5:4 }
    4acc:	60 46 c0 49 	49c04660     { r1:0 = memd (gp + #408)
    4ad0:	24 c7 c0 49 	49c0c724       r5:4 = memd (gp + #456) }
    4ad4:	1b 40 c3 a1 	a1c3401b     { memd (r3 + #216) = r1:0
    4ad8:	1c c4 c3 a1 	a1c3c41c       memd (r3 + #224) = r5:4 }
    4adc:	40 47 c0 49 	49c04740     { r1:0 = memd (gp + #464)
    4ae0:	c4 c6 c0 49 	49c0c6c4       r5:4 = memd (gp + #432) }
    4ae4:	1d 40 c3 a1 	a1c3401d     { memd (r3 + #232) = r1:0
    4ae8:	1e c4 c3 a1 	a1c3c41e       memd (r3 + #240) = r5:4 }
    4aec:	e0 45 c0 49 	49c045e0     { r1:0 = memd (gp + #376)
    4af0:	c4 c5 c0 49 	49c0c5c4       r5:4 = memd (gp + #368) }
    4af4:	1f 40 c3 a1 	a1c3401f     { memd (r3 + #248) = r1:0
    4af8:	20 c4 c3 a1 	a1c3c420       memd (r3 + #256) = r5:4 }
    4afc:	00 45 c0 49 	49c04500     { r1:0 = memd (gp + #320)
    4b00:	64 c7 c0 49 	49c0c764       r5:4 = memd (gp + #472) }
    4b04:	21 40 c3 a1 	a1c34021     { memd (r3 + #264) = r1:0
    4b08:	22 c4 c3 a1 	a1c3c422       memd (r3 + #272) = r5:4 }
    4b0c:	80 47 c0 49 	49c04780     { r1:0 = memd (gp + #480)
    4b10:	24 c7 c0 49 	49c0c724       r5:4 = memd (gp + #456) }
    4b14:	23 40 c3 a1 	a1c34023     { memd (r3 + #280) = r1:0
    4b18:	24 c4 c3 a1 	a1c3c424       memd (r3 + #288) = r5:4 }
    4b1c:	c0 46 c0 49 	49c046c0     { r1:0 = memd (gp + #432)
    4b20:	a4 c6 c0 49 	49c0c6a4       r5:4 = memd (gp + #424) }
    4b24:	25 40 c3 a1 	a1c34025     { memd (r3 + #296) = r1:0
    4b28:	26 c4 c3 a1 	a1c3c426       memd (r3 + #304) = r5:4 }
    4b2c:	20 47 c0 49 	49c04720     { r1:0 = memd (gp + #456)
    4b30:	a4 c7 c0 49 	49c0c7a4       r5:4 = memd (gp + #488) }
    4b34:	27 40 c3 a1 	a1c34027     { memd (r3 + #312) = r1:0
    4b38:	28 c4 c3 a1 	a1c3c428       memd (r3 + #320) = r5:4 }
    4b3c:	c0 47 c0 49 	49c047c0     { r1:0 = memd (gp + #496)
    4b40:	56 c2 03 a1 	a103c256       memb (r3 + #86) = r2 }
    4b44:	e4 47 c0 49 	49c047e4     { r5:4 = memd (gp + #504)
    4b48:	29 c0 c3 a1 	a1c3c029       memd (r3 + #328) = r1:0 }
    4b4c:	c0 45 c0 49 	49c045c0     { r1:0 = memd (gp + #368)
    4b50:	39 c4 c3 a1 	a1c3c439       memd (r3 + #456) = r5:4 }
    4b54:	04 47 c0 49 	49c04704     { r5:4 = memd (gp + #448)
    4b58:	2a c0 c3 a1 	a1c3c02a       memd (r3 + #336) = r1:0 }
    4b5c:	2b 40 c3 a1 	a1c3402b     { memd (r3 + #344) = r1:0
    4b60:	2c c4 c3 a1 	a1c3c42c       memd (r3 + #352) = r5:4 }
    4b64:	a0 47 c0 49 	49c047a0     { r1:0 = memd (gp + #488)
    4b68:	04 c5 c0 49 	49c0c504       r5:4 = memd (gp + #320) }
    4b6c:	2d 40 c3 a1 	a1c3402d     { memd (r3 + #360) = r1:0
    4b70:	2e c4 c3 a1 	a1c3c42e       memd (r3 + #368) = r5:4 }
    4b74:	c0 44 c0 49 	49c044c0     { r1:0 = memd (gp + #304)
    4b78:	2f c4 c3 a1 	a1c3c42f       memd (r3 + #376) = r5:4 }
    4b7c:	04 48 c0 49 	49c04804     { r5:4 = memd (gp + #512)
    4b80:	30 c0 c3 a1 	a1c3c030       memd (r3 + #384) = r1:0 }
    4b84:	31 44 c3 a1 	a1c34431     { memd (r3 + #392) = r5:4
    4b88:	32 c0 c3 a1 	a1c3c032       memd (r3 + #400) = r1:0 }
    4b8c:	64 46 c0 49 	49c04664     { r5:4 = memd (gp + #408)
    4b90:	e0 c4 c0 49 	49c0c4e0       r1:0 = memd (gp + #312) }
    4b94:	33 40 c3 a1 	a1c34033     { memd (r3 + #408) = r1:0
    4b98:	34 c4 c3 a1 	a1c3c434       memd (r3 + #416) = r5:4 }
    4b9c:	20 48 c0 49 	49c04820     { r1:0 = memd (gp + #520)
    4ba0:	44 c8 c0 49 	49c0c844       r5:4 = memd (gp + #528) }
    4ba4:	35 40 c3 a1 	a1c34035     { memd (r3 + #424) = r1:0
    4ba8:	36 c4 c3 a1 	a1c3c436       memd (r3 + #432) = r5:4 }
    4bac:	00 47 c0 49 	49c04700     { r1:0 = memd (gp + #448)
    4bb0:	64 c8 c0 49 	49c0c864       r5:4 = memd (gp + #536) }
    4bb4:	37 40 c3 a1 	a1c34037     { memd (r3 + #440) = r1:0
    4bb8:	38 c4 c3 a1 	a1c3c438       memd (r3 + #448) = r5:4 }
    4bbc:	00 40 9f 52 	529f4000     { jumpr r31
    4bc0:	a0 c5 c0 49 	49c0c5a0       r1:0 = memd (gp + #360) }
    4bc4:	00 c0 00 7f 	7f00c000     nop
    4bc8:	00 c0 00 7f 	7f00c000     nop
    4bcc:	00 c0 00 7f 	7f00c000     nop

00004bd0 <load_speaker_gmm>:
    4bd0:	fc 4d 01 5a 	5a014dfc     { call e7c8 <__save_r16_through_r23>
    4bd4:	01 44 00 00 	00004401       immext (#65600)
    4bd8:	20 3d c0 69 	69c03d20       r0 = ##65628 ; allocframe (#144) }
    4bdc:	12 41 1d b0 	b01d4112     { r18 = add (r29, #8)
    4be0:	02 cb 00 5a 	5a00cb02       call 61e0 <puts> }
    4be4:	69 4e 00 00 	00004e69     { immext (#236096)
    4be8:	11 40 00 78 	78004011       r17 = ##236096
    4bec:	01 28 0b 28 	280b2801       r19 = #0 ; r1 = #0 }
    4bf0:	02 6f 11 78 	78116f02     { r2 = #9080
    4bf4:	a8 4c 00 5a 	5a004ca8       call 6540 <memset>
    4bf8:	00 40 71 70 	70714000       r0 = r17
    4bfc:	14 e3 03 78 	7803e314       r20 = #1816 }
    4c00:	82 4c 00 78 	78004c82     { r2 = #100
    4c04:	a0 4c 00 5a 	5a004ca0       call 6540 <memset>
    4c08:	00 e0 32 73 	7332e000       r1:0 = combine (#0, r18) }
    4c0c:	10 44 00 00 	00004410     { immext (#66560)
    4c10:	a1 42 00 78 	780042a1       r1 = ##66581
    4c14:	01 44 00 00 	00004401       immext (#65600)
    4c18:	00 c6 00 78 	7800c600       r0 = ##65648 }
    4c1c:	ca c4 00 5a 	5a00c4ca     call 55b0 <fopen>
    4c20:	10 40 60 70 	70604010     { r16 = r0
    4c24:	80 ec 32 73 	7332ec80       r1:0 = combine (#100, r18) }
    4c28:	02 40 70 70 	70704002     { r2 = r16
    4c2c:	fc c3 00 5a 	5a00c3fc       call 5420 <fgets> }
    4c30:	82 4c 00 78 	78004c82     { r2 = #100
    4c34:	88 4c 00 5a 	5a004c88       call 6540 <memset>
    4c38:	a0 30 01 28 	280130a0       r1 = #0 ; r0 = r18 }
    4c3c:	80 6c 32 73 	73326c80     { r1:0 = combine (#100, r18)
    4c40:	f2 43 00 5a 	5a0043f2       call 5420 <fgets>
    4c44:	02 c0 70 70 	7070c002       r2 = r16 }
    4c48:	00 40 72 70 	70724000     { r0 = r18
    4c4c:	e4 cd 00 5a 	5a00cde4       call 6810 <strlen> }
    4c50:	e2 7f e0 bf 	bfe07fe2     { r2 = add (r0, #-1)
    4c54:	00 d3 12 f5 	f512d300       r1:0 = combine (r18, r19) }
    4c58:	11 40 14 e3 	e3144011     { r0 = add (r17, mpyi (r0, r20))
    4c5c:	24 cf 00 5a 	5a00cf24       call 6aa0 <strncpy> }
    4c60:	00 60 32 73 	73326000     { r1:0 = combine (#0, r18)
    4c64:	70 4c 00 5a 	5a004c70       call 6540 <memset>
    4c68:	82 cc 00 78 	7800cc82       r2 = #100 }
    4c6c:	80 6c 32 73 	73326c80     { r1:0 = combine (#100, r18)
    4c70:	da 43 00 5a 	5a0043da       call 5420 <fgets>
    4c74:	02 c0 70 70 	7070c002       r2 = r16 }
    4c78:	01 44 00 00 	00004401     { immext (#65600)
    4c7c:	e0 67 32 73 	733267e0       r1:0 = combine (##65663, r18)
    4c80:	f4 4e 00 5a 	5a004ef4       call 6a60 <strncmp>
    4c84:	42 c0 00 78 	7800c042       r2 = #2 }
    4c88:	76 5c 13 e0 	e0135c76     { r22 = + mpyi (r19, #227)
    4c8c:	18 40 40 10 	10404018       p0 = cmp.eq (r0, #0) ; if (!p0.new) jump:nt 4cb8 <load_speaker_gmm+0xe8>
    4c90:	15 c0 00 78 	7800c015       r21 = #0 }
    4c94:	56 42 15 db 	db154256     { r2 = add (r21, add (r22, #2))
    4c98:	04 44 00 00 	00004404       immext (#65792)
    4c9c:	80 30 31 28 	28313080       r1 = ##65795 ; r0 = r16 }
    4ca0:	62 51 02 c4 	c4025162     { r2 = addasl (r17, r2, #3)
    4ca4:	60 45 00 5a 	5a004560       call 5760 <fscanf>
    4ca8:	35 40 15 b0 	b0154035       r21 = add (r21, #1)
    4cac:	00 d6 bd a1 	a1bdd600       memw (r29 + #0) = r2.new }
    4cb0:	80 4d 15 75 	75154d80     { p0 = cmp.eq (r21, #108)
    4cb4:	f2 f8 ff 5c 	5cfff8f2       if !p0.new jump:t 4c94 <load_speaker_gmm+0xc4> }
    4cb8:	82 4c 00 78 	78004c82     { r2 = #100
    4cbc:	44 4c 00 5a 	5a004c44       call 6540 <memset>
    4cc0:	a0 30 01 28 	280130a0       r1 = #0 ; r0 = r18 }
    4cc4:	80 6c 32 73 	73326c80     { r1:0 = combine (#100, r18)
    4cc8:	ae 43 00 5a 	5a0043ae       call 5420 <fgets>
    4ccc:	02 c0 70 70 	7070c002       r2 = r16 }
    4cd0:	02 44 00 00 	00004402     { immext (#65664)
    4cd4:	40 60 32 73 	73326040       r1:0 = combine (##65666, r18)
    4cd8:	c8 4e 00 5a 	5a004ec8       call 6a60 <strncmp>
    4cdc:	42 c0 00 78 	7800c042       r2 = #2 }
    4ce0:	76 5c 13 e0 	e0135c76     { r22 = + mpyi (r19, #227)
    4ce4:	1c 40 40 10 	1040401c       p0 = cmp.eq (r0, #0) ; if (!p0.new) jump:nt 4d18 <load_speaker_gmm+0x148>
    4ce8:	15 40 00 78 	78004015       r21 = #0
    4cec:	00 c0 00 7f 	7f00c000       nop }
    4cf0:	01 40 00 00 	00004001     { immext (#64)
    4cf4:	d6 62 55 db 	db5562d6       r2 = add (r21, add (r22, ##110))
    4cf8:	dd 31 80 30 	308031dd       r0 = r16 ; r21 = add (r21, #1) }
    4cfc:	62 51 02 c4 	c4025162     { r2 = addasl (r17, r2, #3)
    4d00:	04 44 00 00 	00004404       immext (#65792)
    4d04:	61 40 00 78 	78004061       r1 = ##65795
    4d08:	00 d4 bd a1 	a1bdd400       memw (r29 + #0) = r2.new }
    4d0c:	2a c5 00 5a 	5a00c52a     call 5760 <fscanf>
    4d10:	80 4d 15 75 	75154d80     { p0 = cmp.eq (r21, #108)
    4d14:	f0 f8 ff 5c 	5cfff8f0       if !p0.new jump:t 4cf0 <load_speaker_gmm+0x120> }
    4d18:	82 4c 00 78 	78004c82     { r2 = #100
    4d1c:	14 4c 00 5a 	5a004c14       call 6540 <memset>
    4d20:	a0 30 01 28 	280130a0       r1 = #0 ; r0 = r18 }
    4d24:	80 6c 32 73 	73326c80     { r1:0 = combine (#100, r18)
    4d28:	7e 43 00 5a 	5a00437e       call 5420 <fgets>
    4d2c:	02 c0 70 70 	7070c002       r2 = r16 }
    4d30:	02 44 00 00 	00004402     { immext (#65664)
    4d34:	a0 60 32 73 	733260a0       r1:0 = combine (##65669, r18)
    4d38:	98 4e 00 5a 	5a004e98       call 6a60 <strncmp>
    4d3c:	42 c0 00 78 	7800c042       r2 = #2 }
    4d40:	76 5c 13 e0 	e0135c76     { r22 = + mpyi (r19, #227)
    4d44:	1a 40 40 10 	1040401a       p0 = cmp.eq (r0, #0) ; if (!p0.new) jump:nt 4d74 <load_speaker_gmm+0x1a4>
    4d48:	15 40 00 78 	78004015       r21 = #0
    4d4c:	00 c0 00 7f 	7f00c000       nop }
    4d50:	03 40 00 00 	00004003     { immext (#192)
    4d54:	56 62 35 db 	db356256       r2 = add (r21, add (r22, ##218))
    4d58:	dd 31 80 30 	308031dd       r0 = r16 ; r21 = add (r21, #1) }
    4d5c:	62 51 02 c4 	c4025162     { r2 = addasl (r17, r2, #3)
    4d60:	04 44 00 00 	00004404       immext (#65792)
    4d64:	61 40 00 78 	78004061       r1 = ##65795
    4d68:	00 d4 bd a1 	a1bdd400       memw (r29 + #0) = r2.new }
    4d6c:	fa c4 00 5a 	5a00c4fa     call 5760 <fscanf>
    4d70:	f0 e9 7d 10 	107de9f0     p0 = cmp.eq (r21, #9) ; if (!p0.new) jump:t 4d50 <load_speaker_gmm+0x180>
    4d74:	33 40 13 b0 	b0134033     { r19 = add (r19, #1)
    4d78:	5e c5 73 24 	2473c55e       if (!cmp.eq (r19.new, #5)) jump:nt 4c30 <load_speaker_gmm+0x60> }
    4d7c:	02 44 00 00 	00004402     { immext (#65664)
    4d80:	00 41 00 78 	78004100       r0 = ##65672
    4d84:	32 ca 00 5a 	5a00ca32       call 61e0 <puts> }
    4d88:	00 40 70 70 	70704000     { r0 = r16
    4d8c:	6c c2 00 5a 	5a00c26c       call 5260 <fclose> }
    4d90:	50 cd 01 58 	5801cd50     jump e830 <__restore_r16_through_r23_and_deallocframe>
    4d94:	00 40 00 7f 	7f004000     { nop
    4d98:	00 40 00 7f 	7f004000       nop
    4d9c:	00 c0 00 7f 	7f00c000       nop }

00004da0 <load_test_sample>:
    4da0:	02 44 00 00 	00004402     { immext (#65664)
    4da4:	a0 43 00 78 	780043a0       r0 = ##65693
    4da8:	00 1d f4 eb 	ebf41d00       memd (sp + #-16) = r17:16 ; allocframe (#128) }
    4dac:	1a 4a 00 5a 	5a004a1a     { call 61e0 <puts>
    4db0:	0e d2 dd a1 	a1ddd20e       memd (r29 + #112) = r19:18 }
    4db4:	10 44 00 00 	00004410     { immext (#66560)
    4db8:	2b 2c 51 29 	29512c2b       r1 = ##66581 ; r19 = add (sp, #8) }
    4dbc:	02 44 00 00 	00004402     { immext (#65664)
    4dc0:	20 46 00 78 	78004620       r0 = ##65713
    4dc4:	fa c3 00 5a 	5a00c3fa       call 55b0 <fopen> }
    4dc8:	6e 4d 00 00 	00004d6e     { immext (#220032)
    4dcc:	10 44 00 78 	78004410       r16 = ##220064
    4dd0:	11 40 60 70 	70604011       r17 = r0
    4dd4:	ff ed 5d 3c 	3c5dedff       memw (r29 + #108) = #-1 }
    4dd8:	82 4c 00 78 	78004c82     { r2 = #100
    4ddc:	b4 4b 00 5a 	5a004bb4       call 6540 <memset>
    4de0:	b0 30 01 28 	280130b0       r1 = #0 ; r0 = r19 }
    4de4:	12 54 f0 b3 	b3f05412     { r18 = add (r16, #16032)
    4de8:	81 4c 00 78 	78004c81       r1 = #100
    4dec:	92 30 b0 30 	30b03092       r0 = r19 ; r2 = r17 }
    4df0:	18 c3 00 5a 	5a00c318     call 5420 <fgets>
    4df4:	82 4d 1d b0 	b01d4d82     { r2 = add (r29, #108)
    4df8:	03 44 00 00 	00004403       immext (#65728)
    4dfc:	20 60 31 73 	73316020       r1:0 = combine (##65729, r17)
    4e00:	00 d4 bd a1 	a1bdd400       memw (r29 + #0) = r2.new }
    4e04:	ae c4 00 5a 	5a00c4ae     call 5760 <fscanf>
    4e08:	00 c0 00 7c 	7c00c000     r1:0 = combine (#0, #0)
    4e0c:	03 44 00 00 	00004403     { immext (#65728)
    4e10:	80 60 31 73 	73316080       r1:0 = combine (##65732, r17)
    4e14:	f6 4e 00 00 	00004ef6       immext (#245120)
    4e18:	b8 c0 d3 ab 	abd3c0b8       memd (r19 = ##245176) = r1:0 }
    4e1c:	a2 44 00 5a 	5a0044a2     { call 5760 <fscanf>
    4e20:	00 42 33 3c 	3c334200       memh (r19 + #8) = #0
    4e24:	00 d3 9d a1 	a19dd300       memw (r29 + #0) = r19 }
    4e28:	03 44 00 00 	00004403     { immext (#65728)
    4e2c:	e0 40 00 78 	780040e0       r0 = ##65735
    4e30:	1b 28 b1 dd 	ddb1281b       r1 = memw (sp + #108) ; memw (sp + #4) = r19 }
